ARM GAS  /tmp/ccSTtYB6.s 			page 1


   1              		.cpu cortex-m4
   2              		.arch armv7e-m
   3              		.fpu fpv4-sp-d16
   4              		.eabi_attribute 27, 1
   5              		.eabi_attribute 28, 1
   6              		.eabi_attribute 20, 1
   7              		.eabi_attribute 21, 1
   8              		.eabi_attribute 23, 3
   9              		.eabi_attribute 24, 1
  10              		.eabi_attribute 25, 1
  11              		.eabi_attribute 26, 1
  12              		.eabi_attribute 30, 4
  13              		.eabi_attribute 34, 1
  14              		.eabi_attribute 18, 4
  15              		.file	"main.c"
  16              		.text
  17              	.Ltext0:
  18              		.cfi_sections	.debug_frame
  19              		.file 1 "Src/main.c"
  20              		.section	.text._ZN14SPI_Connection10write_dataEt.isra.0,"ax",%progbits
  21              		.align	1
  22              		.syntax unified
  23              		.thumb
  24              		.thumb_func
  26              	_ZN14SPI_Connection10write_dataEt.isra.0:
  27              		.fnstart
  28              	.LVL0:
  29              	.LFB185:
  30              		.file 2 "Src/include/SPI_Connection.h"
   1:Src/include/SPI_Connection.h **** #ifndef SPI_CONNECTION_H
   2:Src/include/SPI_Connection.h **** #define SPI_CONNECTION_H
   3:Src/include/SPI_Connection.h **** 
   4:Src/include/SPI_Connection.h **** #include <stm32g474xx.h>
   5:Src/include/SPI_Connection.h **** 
   6:Src/include/SPI_Connection.h **** #ifndef CS_LOW
   7:Src/include/SPI_Connection.h **** #define		 CS_LOW 	GPIOB->BSRR = GPIO_BSRR_BR12;
   8:Src/include/SPI_Connection.h **** #endif
   9:Src/include/SPI_Connection.h **** 
  10:Src/include/SPI_Connection.h **** #ifndef CS_HIGH
  11:Src/include/SPI_Connection.h **** #define 	 CS_HIGH 	GPIOB->BSRR = GPIO_BSRR_BS12;
  12:Src/include/SPI_Connection.h **** #endif
  13:Src/include/SPI_Connection.h **** 
  14:Src/include/SPI_Connection.h **** class SPI_Connection{
  15:Src/include/SPI_Connection.h **** private:
  16:Src/include/SPI_Connection.h **** public:
  17:Src/include/SPI_Connection.h ****     SPI_Connection(){
  18:Src/include/SPI_Connection.h ****         RCC->AHB2ENR  |= RCC_AHB2ENR_GPIOBEN;   // ą▓ą║ą╗čÄčćą░ąĄą╝ čéą░ą║čéąĖčĆąŠą▓ą░ąĮąĖąĄ PortB
  19:Src/include/SPI_Connection.h **** 
  20:Src/include/SPI_Connection.h ****         GPIOB->MODER  &= ~(GPIO_MODER_MODE12   | GPIO_MODER_MODE13   | GPIO_MODER_MODE14   | GPIO_M
  21:Src/include/SPI_Connection.h ****         GPIOB->MODER  |=  (GPIO_MODER_MODE12_0 | GPIO_MODER_MODE13_1 | GPIO_MODER_MODE14_0 | GPIO_M
  22:Src/include/SPI_Connection.h ****         GPIOB->AFR[1] &= ~( GPIO_AFRH_AFSEL13   | GPIO_AFRH_AFSEL15 );                             
  23:Src/include/SPI_Connection.h ****         GPIOB->AFR[1] |=  ( GPIO_AFRH_AFSEL13_2 | GPIO_AFRH_AFSEL13_0 | GPIO_AFRH_AFSEL15_2 | GPIO_
  24:Src/include/SPI_Connection.h **** 
  25:Src/include/SPI_Connection.h ****         GPIOB->BSRR |= GPIO_BSRR_BR14;          // čłą╗ąĄą╝ čüą▒čĆąŠčü ąĮą░ PB14
  26:Src/include/SPI_Connection.h **** 
  27:Src/include/SPI_Connection.h ****         RCC->APB1ENR1 |= RCC_APB1ENR1_SPI2EN;   // ą▓ą║ą╗čÄčćą░ąĄą╝ SPI2 ąĮą░ čéą░ą║čéąĖčĆąŠą▓ą░ąĮą
  28:Src/include/SPI_Connection.h **** 
ARM GAS  /tmp/ccSTtYB6.s 			page 2


  29:Src/include/SPI_Connection.h ****         SPI2->CR1 |= SPI_CR1_MSTR | SPI_CR1_CPOL | SPI_CR1_CPHA | SPI_CR1_BR_0 | SPI_CR1_BR_1 | SPI
  30:Src/include/SPI_Connection.h ****         SPI2->CR2 |= SPI_CR2_DS_3;              // ą┤ą╗ąĖąĮą░ čäčĆąĄą╣ą╝ą░ 9-ą▒ąĖčé
  31:Src/include/SPI_Connection.h ****         SPI2->CR2 &= ~(SPI_CR2_DS_0 | SPI_CR2_DS_1 | SPI_CR2_DS_2);
  32:Src/include/SPI_Connection.h **** 
  33:Src/include/SPI_Connection.h ****         CS_HIGH
  34:Src/include/SPI_Connection.h **** 
  35:Src/include/SPI_Connection.h ****         SPI2->CR1 |= SPI_CR1_SPE;               // ą▓ą║ą╗čÄčćą░ąĄą╝ SPI
  36:Src/include/SPI_Connection.h **** 
  37:Src/include/SPI_Connection.h ****         for(uint32_t timer=0;timer<500;timer++) {
  38:Src/include/SPI_Connection.h ****             __NOP();
  39:Src/include/SPI_Connection.h ****         }
  40:Src/include/SPI_Connection.h **** 
  41:Src/include/SPI_Connection.h ****         GPIOB->BSRR |= GPIO_BSRR_BS14;          // ąŠčéą║ą╗čÄčćą░ąĄą╝ čüą▒čĆąŠčü
  42:Src/include/SPI_Connection.h ****     }
  43:Src/include/SPI_Connection.h **** 
  44:Src/include/SPI_Connection.h ****     ~SPI_Connection(){
  45:Src/include/SPI_Connection.h **** 
  46:Src/include/SPI_Connection.h ****     }
  47:Src/include/SPI_Connection.h **** 
  48:Src/include/SPI_Connection.h ****     uint16_t write_data(uint16_t data){
  31              		.loc 2 48 14 view -0
  32              		.cfi_startproc
  33              		@ args = 0, pretend = 0, frame = 0
  34              		@ frame_needed = 0, uses_anonymous_args = 0
  35              		@ link register save eliminated.
  49:Src/include/SPI_Connection.h ****         while(!(SPI2->SR & SPI_SR_TXE));    //ąČą┤čæą╝ ą┐ąŠą║ą░ ąŠą┐čāčüčéąŠčłąĖčéčüčÅ Tx ą▒čāčäąĄč
  36              		.loc 2 49 9 view .LVU1
  37              		.loc 2 49 23 is_stmt 0 discriminator 1 view .LVU2
  38 0000 084B     		ldr	r3, .L8
  39              	.L2:
  40              		.loc 2 49 15 is_stmt 1 discriminator 1 view .LVU3
  41              		.loc 2 49 23 is_stmt 0 discriminator 1 view .LVU4
  42 0002 9A68     		ldr	r2, [r3, #8]
  43              		.loc 2 49 15 discriminator 1 view .LVU5
  44 0004 9207     		lsls	r2, r2, #30
  45 0006 FCD5     		bpl	.L2
  50:Src/include/SPI_Connection.h **** 
  51:Src/include/SPI_Connection.h ****         CS_LOW                              //ą░ą║čéąĖą▓ąĖčĆčāąĄą╝ Chip Select
  46              		.loc 2 51 9 is_stmt 1 view .LVU6
  47 0008 074A     		ldr	r2, .L8+4
  48 000a 4FF08051 		mov	r1, #268435456
  49 000e 9161     		str	r1, [r2, #24]
  52:Src/include/SPI_Connection.h **** 
  53:Src/include/SPI_Connection.h ****         SPI2->DR = data;                    //ąŠčéą┐čĆą░ą▓ą╗čÅąĄą╝ ą┤ą░ąĮąĮčŗąĄ
  50              		.loc 2 53 9 view .LVU7
  51              		.loc 2 53 18 is_stmt 0 view .LVU8
  52 0010 D860     		str	r0, [r3, #12]
  54:Src/include/SPI_Connection.h **** 
  55:Src/include/SPI_Connection.h ****         while(!(SPI2->SR & SPI_SR_RXNE));   //ąČą┤čæą╝ ą┐ąŠą║ą░ ą┐čĆąĖą┤čæčé ąŠčéą▓ąĄčé
  53              		.loc 2 55 9 is_stmt 1 view .LVU9
  54              	.L3:
  55              		.loc 2 55 15 discriminator 1 view .LVU10
  56              		.loc 2 55 23 is_stmt 0 discriminator 1 view .LVU11
  57 0012 9968     		ldr	r1, [r3, #8]
  58              		.loc 2 55 15 discriminator 1 view .LVU12
  59 0014 C907     		lsls	r1, r1, #31
  60 0016 FCD5     		bpl	.L3
ARM GAS  /tmp/ccSTtYB6.s 			page 3


  56:Src/include/SPI_Connection.h **** 
  57:Src/include/SPI_Connection.h ****         data = SPI2->DR;                    //čüčćąĖčéčŗą▓ą░ąĄą╝ ą┐ąŠą╗čāčćąĄąĮąĮčŗąĄ ą┤ą░ąĮąĮčŗąĄ
  61              		.loc 2 57 9 is_stmt 1 view .LVU13
  62              		.loc 2 57 22 is_stmt 0 view .LVU14
  63 0018 DB68     		ldr	r3, [r3, #12]
  64              	.LVL1:
  58:Src/include/SPI_Connection.h **** 
  59:Src/include/SPI_Connection.h ****         CS_HIGH                             //ą┤ąĄą░ą║čéąĖą▓ąĖčĆčāąĄą╝ Chip Select
  65              		.loc 2 59 9 is_stmt 1 view .LVU15
  66 001a 4FF48053 		mov	r3, #4096
  67 001e 9361     		str	r3, [r2, #24]
  60:Src/include/SPI_Connection.h **** 
  61:Src/include/SPI_Connection.h ****         return data;                        //ą▓ąŠąĘą▓čĆą░čēą░ąĄą╝ čéąŠ, čćčéąŠ ą┐čĆąŠčćąĖčéą░ą╗ąĖ
  68              		.loc 2 61 9 view .LVU16
  62:Src/include/SPI_Connection.h ****     }
  69              		.loc 2 62 5 is_stmt 0 view .LVU17
  70 0020 7047     		bx	lr
  71              	.L9:
  72 0022 00BF     		.align	2
  73              	.L8:
  74 0024 00380040 		.word	1073756160
  75 0028 00040048 		.word	1207960576
  76              		.cfi_endproc
  77              	.LFE185:
  78              		.cantunwind
  79              		.fnend
  81              		.section	.text._ZN14SPI_Connection16SSD1322_write_CDEhh.isra.0,"ax",%progbits
  82              		.align	1
  83              		.syntax unified
  84              		.thumb
  85              		.thumb_func
  87              	_ZN14SPI_Connection16SSD1322_write_CDEhh.isra.0:
  88              		.fnstart
  89              	.LVL2:
  90              	.LFB186:
  63:Src/include/SPI_Connection.h **** 
  64:Src/include/SPI_Connection.h ****     void SSD1322_write_D(uint8_t data){
  65:Src/include/SPI_Connection.h ****         write_data(0x0100 | data);          //append data to 0x01
  66:Src/include/SPI_Connection.h ****     }
  67:Src/include/SPI_Connection.h **** 
  68:Src/include/SPI_Connection.h ****     void SSD1322_write_C(uint8_t cmd){
  69:Src/include/SPI_Connection.h ****         write_data(cmd);
  70:Src/include/SPI_Connection.h ****     }
  71:Src/include/SPI_Connection.h **** 
  72:Src/include/SPI_Connection.h ****     void SSD1322_write_CD(uint8_t cmd, uint8_t D0) {
  91              		.loc 2 72 10 is_stmt 1 view -0
  92              		.cfi_startproc
  93              		@ args = 0, pretend = 0, frame = 0
  94              		@ frame_needed = 0, uses_anonymous_args = 0
  73:Src/include/SPI_Connection.h **** 
  74:Src/include/SPI_Connection.h ****         SSD1322_write_C(cmd);
  95              		.loc 2 74 9 view .LVU19
  96              	.LBB39:
  97              	.LBI39:
  68:Src/include/SPI_Connection.h ****         write_data(cmd);
  98              		.loc 2 68 10 view .LVU20
  99              	.LBB40:
ARM GAS  /tmp/ccSTtYB6.s 			page 4


  69:Src/include/SPI_Connection.h ****     }
 100              		.loc 2 69 9 view .LVU21
 101              	.LBE40:
 102              	.LBE39:
  72:Src/include/SPI_Connection.h **** 
 103              		.loc 2 72 10 is_stmt 0 view .LVU22
 104 0000 10B5     		push	{r4, lr}
 105              	.LCFI0:
 106              		.cfi_def_cfa_offset 8
 107              		.cfi_offset 4, -8
 108              		.cfi_offset 14, -4
  72:Src/include/SPI_Connection.h **** 
 109              		.loc 2 72 10 view .LVU23
 110 0002 0C46     		mov	r4, r1
 111              	.LBB42:
 112              	.LBB41:
  69:Src/include/SPI_Connection.h ****     }
 113              		.loc 2 69 19 view .LVU24
 114 0004 FFF7FEFF 		bl	_ZN14SPI_Connection10write_dataEt.isra.0
 115              	.LVL3:
  69:Src/include/SPI_Connection.h ****     }
 116              		.loc 2 69 19 view .LVU25
 117              	.LBE41:
 118              	.LBE42:
  75:Src/include/SPI_Connection.h ****         SSD1322_write_D(D0);
 119              		.loc 2 75 9 is_stmt 1 view .LVU26
 120              	.LBB43:
 121              	.LBI43:
  64:Src/include/SPI_Connection.h ****         write_data(0x0100 | data);          //append data to 0x01
 122              		.loc 2 64 10 view .LVU27
 123              	.LBB44:
  65:Src/include/SPI_Connection.h ****     }
 124              		.loc 2 65 9 view .LVU28
  65:Src/include/SPI_Connection.h ****     }
 125              		.loc 2 65 19 is_stmt 0 view .LVU29
 126 0008 44F48070 		orr	r0, r4, #256
 127              	.LVL4:
  65:Src/include/SPI_Connection.h ****     }
 128              		.loc 2 65 19 view .LVU30
 129              	.LBE44:
 130              	.LBE43:
  76:Src/include/SPI_Connection.h ****     }
 131              		.loc 2 76 5 view .LVU31
 132 000c BDE81040 		pop	{r4, lr}
 133              	.LCFI1:
 134              		.cfi_restore 14
 135              		.cfi_restore 4
 136              		.cfi_def_cfa_offset 0
 137              	.LVL5:
 138              	.LBB46:
 139              	.LBB45:
  65:Src/include/SPI_Connection.h ****     }
 140              		.loc 2 65 19 view .LVU32
 141 0010 FFF7FEBF 		b	_ZN14SPI_Connection10write_dataEt.isra.0
 142              	.LVL6:
 143              	.LBE45:
 144              	.LBE46:
ARM GAS  /tmp/ccSTtYB6.s 			page 5


 145              		.cfi_endproc
 146              	.LFE186:
 147              		.cantunwind
 148              		.fnend
 150              		.section	.text._ZN14SPI_Connection17SSD1322_write_C2DEhhh.isra.0,"ax",%progbits
 151              		.align	1
 152              		.syntax unified
 153              		.thumb
 154              		.thumb_func
 156              	_ZN14SPI_Connection17SSD1322_write_C2DEhhh.isra.0:
 157              		.fnstart
 158              	.LVL7:
 159              	.LFB188:
  77:Src/include/SPI_Connection.h **** 
  78:Src/include/SPI_Connection.h ****     void SSD1322_write_C2D(uint8_t cmd, uint8_t D0, uint8_t D1) {
 160              		.loc 2 78 10 is_stmt 1 view -0
 161              		.cfi_startproc
 162              		@ args = 0, pretend = 0, frame = 0
 163              		@ frame_needed = 0, uses_anonymous_args = 0
  79:Src/include/SPI_Connection.h **** 
  80:Src/include/SPI_Connection.h ****         SSD1322_write_C(cmd);
 164              		.loc 2 80 9 view .LVU34
 165              	.LBB55:
 166              	.LBI55:
  68:Src/include/SPI_Connection.h ****         write_data(cmd);
 167              		.loc 2 68 10 view .LVU35
 168              	.LBB56:
  69:Src/include/SPI_Connection.h ****     }
 169              		.loc 2 69 9 view .LVU36
 170              	.LBE56:
 171              	.LBE55:
  78:Src/include/SPI_Connection.h **** 
 172              		.loc 2 78 10 is_stmt 0 view .LVU37
 173 0000 38B5     		push	{r3, r4, r5, lr}
 174              	.LCFI2:
 175              		.cfi_def_cfa_offset 16
 176              		.cfi_offset 3, -16
 177              		.cfi_offset 4, -12
 178              		.cfi_offset 5, -8
 179              		.cfi_offset 14, -4
  78:Src/include/SPI_Connection.h **** 
 180              		.loc 2 78 10 view .LVU38
 181 0002 0D46     		mov	r5, r1
 182 0004 1446     		mov	r4, r2
 183              	.LBB58:
 184              	.LBB57:
  69:Src/include/SPI_Connection.h ****     }
 185              		.loc 2 69 19 view .LVU39
 186 0006 FFF7FEFF 		bl	_ZN14SPI_Connection10write_dataEt.isra.0
 187              	.LVL8:
  69:Src/include/SPI_Connection.h ****     }
 188              		.loc 2 69 19 view .LVU40
 189              	.LBE57:
 190              	.LBE58:
  81:Src/include/SPI_Connection.h ****         SSD1322_write_D(D0);
 191              		.loc 2 81 9 is_stmt 1 view .LVU41
 192              	.LBB59:
ARM GAS  /tmp/ccSTtYB6.s 			page 6


 193              	.LBI59:
  64:Src/include/SPI_Connection.h ****         write_data(0x0100 | data);          //append data to 0x01
 194              		.loc 2 64 10 view .LVU42
 195              	.LBB60:
  65:Src/include/SPI_Connection.h ****     }
 196              		.loc 2 65 9 view .LVU43
  65:Src/include/SPI_Connection.h ****     }
 197              		.loc 2 65 19 is_stmt 0 view .LVU44
 198 000a 45F48070 		orr	r0, r5, #256
 199              	.LVL9:
  65:Src/include/SPI_Connection.h ****     }
 200              		.loc 2 65 19 view .LVU45
 201 000e FFF7FEFF 		bl	_ZN14SPI_Connection10write_dataEt.isra.0
 202              	.LVL10:
  65:Src/include/SPI_Connection.h ****     }
 203              		.loc 2 65 19 view .LVU46
 204              	.LBE60:
 205              	.LBE59:
  82:Src/include/SPI_Connection.h ****         SSD1322_write_D(D1);
 206              		.loc 2 82 9 is_stmt 1 view .LVU47
 207              	.LBB61:
 208              	.LBI61:
  64:Src/include/SPI_Connection.h ****         write_data(0x0100 | data);          //append data to 0x01
 209              		.loc 2 64 10 view .LVU48
 210              	.LBB62:
  65:Src/include/SPI_Connection.h ****     }
 211              		.loc 2 65 9 view .LVU49
  65:Src/include/SPI_Connection.h ****     }
 212              		.loc 2 65 19 is_stmt 0 view .LVU50
 213 0012 44F48070 		orr	r0, r4, #256
 214              	.LBE62:
 215              	.LBE61:
  83:Src/include/SPI_Connection.h ****     }
 216              		.loc 2 83 5 view .LVU51
 217 0016 BDE83840 		pop	{r3, r4, r5, lr}
 218              	.LCFI3:
 219              		.cfi_restore 14
 220              		.cfi_restore 5
 221              		.cfi_restore 4
 222              		.cfi_restore 3
 223              		.cfi_def_cfa_offset 0
 224              	.LVL11:
 225              	.LBB64:
 226              	.LBB63:
  65:Src/include/SPI_Connection.h ****     }
 227              		.loc 2 65 19 view .LVU52
 228 001a FFF7FEBF 		b	_ZN14SPI_Connection10write_dataEt.isra.0
 229              	.LVL12:
 230              	.LBE63:
 231              	.LBE64:
 232              		.cfi_endproc
 233              	.LFE188:
 234              		.cantunwind
 235              		.fnend
 237              		.section	.text._ZN14SPI_ConnectionC2Ev,"axG",%progbits,_ZN14SPI_ConnectionC5Ev,comdat
 238              		.align	1
 239              		.weak	_ZN14SPI_ConnectionC2Ev
ARM GAS  /tmp/ccSTtYB6.s 			page 7


 240              		.syntax unified
 241              		.thumb
 242              		.thumb_func
 244              	_ZN14SPI_ConnectionC2Ev:
 245              		.fnstart
 246              	.LVL13:
 247              	.LFB151:
  17:Src/include/SPI_Connection.h ****         RCC->AHB2ENR  |= RCC_AHB2ENR_GPIOBEN;   // ą▓ą║ą╗čÄčćą░ąĄą╝ čéą░ą║čéąĖčĆąŠą▓ą░ąĮąĖąĄ PortB
 248              		.loc 2 17 5 is_stmt 1 view -0
 249              		.cfi_startproc
 250              		@ args = 0, pretend = 0, frame = 0
 251              		@ frame_needed = 0, uses_anonymous_args = 0
 252              		@ link register save eliminated.
 253              	.LBB65:
  18:Src/include/SPI_Connection.h **** 
 254              		.loc 2 18 9 view .LVU54
  18:Src/include/SPI_Connection.h **** 
 255              		.loc 2 18 14 is_stmt 0 view .LVU55
 256 0000 2049     		ldr	r1, .L15
 257 0002 CB6C     		ldr	r3, [r1, #76]
  18:Src/include/SPI_Connection.h **** 
 258              		.loc 2 18 23 view .LVU56
 259 0004 43F00203 		orr	r3, r3, #2
 260 0008 CB64     		str	r3, [r1, #76]
  20:Src/include/SPI_Connection.h ****         GPIOB->MODER  |=  (GPIO_MODER_MODE12_0 | GPIO_MODER_MODE13_1 | GPIO_MODER_MODE14_0 | GPIO_M
 261              		.loc 2 20 9 is_stmt 1 view .LVU57
  20:Src/include/SPI_Connection.h ****         GPIOB->MODER  |=  (GPIO_MODER_MODE12_0 | GPIO_MODER_MODE13_1 | GPIO_MODER_MODE14_0 | GPIO_M
 262              		.loc 2 20 16 is_stmt 0 view .LVU58
 263 000a 1F4B     		ldr	r3, .L15+4
 264 000c 1A68     		ldr	r2, [r3]
  20:Src/include/SPI_Connection.h ****         GPIOB->MODER  |=  (GPIO_MODER_MODE12_0 | GPIO_MODER_MODE13_1 | GPIO_MODER_MODE14_0 | GPIO_M
 265              		.loc 2 20 23 view .LVU59
 266 000e 22F07F42 		bic	r2, r2, #-16777216
 267 0012 1A60     		str	r2, [r3]
  21:Src/include/SPI_Connection.h ****         GPIOB->AFR[1] &= ~( GPIO_AFRH_AFSEL13   | GPIO_AFRH_AFSEL15 );                             
 268              		.loc 2 21 9 is_stmt 1 view .LVU60
  21:Src/include/SPI_Connection.h ****         GPIOB->AFR[1] &= ~( GPIO_AFRH_AFSEL13   | GPIO_AFRH_AFSEL15 );                             
 269              		.loc 2 21 16 is_stmt 0 view .LVU61
 270 0014 1A68     		ldr	r2, [r3]
  21:Src/include/SPI_Connection.h ****         GPIOB->AFR[1] &= ~( GPIO_AFRH_AFSEL13   | GPIO_AFRH_AFSEL15 );                             
 271              		.loc 2 21 23 view .LVU62
 272 0016 42F01942 		orr	r2, r2, #-1728053248
 273 001a 1A60     		str	r2, [r3]
  22:Src/include/SPI_Connection.h ****         GPIOB->AFR[1] |=  ( GPIO_AFRH_AFSEL13_2 | GPIO_AFRH_AFSEL13_0 | GPIO_AFRH_AFSEL15_2 | GPIO_
 274              		.loc 2 22 9 is_stmt 1 view .LVU63
  22:Src/include/SPI_Connection.h ****         GPIOB->AFR[1] |=  ( GPIO_AFRH_AFSEL13_2 | GPIO_AFRH_AFSEL13_0 | GPIO_AFRH_AFSEL15_2 | GPIO_
 275              		.loc 2 22 21 is_stmt 0 view .LVU64
 276 001c 5A6A     		ldr	r2, [r3, #36]
  22:Src/include/SPI_Connection.h ****         GPIOB->AFR[1] |=  ( GPIO_AFRH_AFSEL13_2 | GPIO_AFRH_AFSEL13_0 | GPIO_AFRH_AFSEL15_2 | GPIO_
 277              		.loc 2 22 23 view .LVU65
 278 001e 22F07042 		bic	r2, r2, #-268435456
 279 0022 22F47002 		bic	r2, r2, #15728640
 280 0026 5A62     		str	r2, [r3, #36]
  23:Src/include/SPI_Connection.h **** 
 281              		.loc 2 23 9 is_stmt 1 view .LVU66
  23:Src/include/SPI_Connection.h **** 
 282              		.loc 2 23 21 is_stmt 0 view .LVU67
ARM GAS  /tmp/ccSTtYB6.s 			page 8


 283 0028 5A6A     		ldr	r2, [r3, #36]
  23:Src/include/SPI_Connection.h **** 
 284              		.loc 2 23 23 view .LVU68
 285 002a 42F0A042 		orr	r2, r2, #1342177280
 286 002e 42F4A002 		orr	r2, r2, #5242880
 287 0032 5A62     		str	r2, [r3, #36]
  25:Src/include/SPI_Connection.h **** 
 288              		.loc 2 25 9 is_stmt 1 view .LVU69
  25:Src/include/SPI_Connection.h **** 
 289              		.loc 2 25 16 is_stmt 0 view .LVU70
 290 0034 9A69     		ldr	r2, [r3, #24]
  25:Src/include/SPI_Connection.h **** 
 291              		.loc 2 25 21 view .LVU71
 292 0036 42F08042 		orr	r2, r2, #1073741824
 293 003a 9A61     		str	r2, [r3, #24]
  27:Src/include/SPI_Connection.h **** 
 294              		.loc 2 27 9 is_stmt 1 view .LVU72
  27:Src/include/SPI_Connection.h **** 
 295              		.loc 2 27 14 is_stmt 0 view .LVU73
 296 003c 8A6D     		ldr	r2, [r1, #88]
  27:Src/include/SPI_Connection.h **** 
 297              		.loc 2 27 23 view .LVU74
 298 003e 42F48042 		orr	r2, r2, #16384
 299 0042 8A65     		str	r2, [r1, #88]
  29:Src/include/SPI_Connection.h ****         SPI2->CR2 |= SPI_CR2_DS_3;              // ą┤ą╗ąĖąĮą░ čäčĆąĄą╣ą╝ą░ 9-ą▒ąĖčé
 300              		.loc 2 29 9 is_stmt 1 view .LVU75
  29:Src/include/SPI_Connection.h ****         SPI2->CR2 |= SPI_CR2_DS_3;              // ą┤ą╗ąĖąĮą░ čäčĆąĄą╣ą╝ą░ 9-ą▒ąĖčé
 301              		.loc 2 29 15 is_stmt 0 view .LVU76
 302 0044 114A     		ldr	r2, .L15+8
 303 0046 1168     		ldr	r1, [r2]
  29:Src/include/SPI_Connection.h ****         SPI2->CR2 |= SPI_CR2_DS_3;              // ą┤ą╗ąĖąĮą░ čäčĆąĄą╣ą╝ą░ 9-ą▒ąĖčé
 304              		.loc 2 29 19 view .LVU77
 305 0048 41F44771 		orr	r1, r1, #796
 306 004c 41F00301 		orr	r1, r1, #3
 307 0050 1160     		str	r1, [r2]
  30:Src/include/SPI_Connection.h ****         SPI2->CR2 &= ~(SPI_CR2_DS_0 | SPI_CR2_DS_1 | SPI_CR2_DS_2);
 308              		.loc 2 30 9 is_stmt 1 view .LVU78
  30:Src/include/SPI_Connection.h ****         SPI2->CR2 &= ~(SPI_CR2_DS_0 | SPI_CR2_DS_1 | SPI_CR2_DS_2);
 309              		.loc 2 30 15 is_stmt 0 view .LVU79
 310 0052 5168     		ldr	r1, [r2, #4]
  30:Src/include/SPI_Connection.h ****         SPI2->CR2 &= ~(SPI_CR2_DS_0 | SPI_CR2_DS_1 | SPI_CR2_DS_2);
 311              		.loc 2 30 19 view .LVU80
 312 0054 41F40061 		orr	r1, r1, #2048
 313 0058 5160     		str	r1, [r2, #4]
  31:Src/include/SPI_Connection.h **** 
 314              		.loc 2 31 9 is_stmt 1 view .LVU81
  31:Src/include/SPI_Connection.h **** 
 315              		.loc 2 31 15 is_stmt 0 view .LVU82
 316 005a 5168     		ldr	r1, [r2, #4]
  31:Src/include/SPI_Connection.h **** 
 317              		.loc 2 31 19 view .LVU83
 318 005c 21F4E061 		bic	r1, r1, #1792
 319 0060 5160     		str	r1, [r2, #4]
  33:Src/include/SPI_Connection.h **** 
 320              		.loc 2 33 9 is_stmt 1 view .LVU84
 321 0062 4FF48051 		mov	r1, #4096
 322 0066 9961     		str	r1, [r3, #24]
ARM GAS  /tmp/ccSTtYB6.s 			page 9


  35:Src/include/SPI_Connection.h **** 
 323              		.loc 2 35 9 view .LVU85
  35:Src/include/SPI_Connection.h **** 
 324              		.loc 2 35 15 is_stmt 0 view .LVU86
 325 0068 1168     		ldr	r1, [r2]
  35:Src/include/SPI_Connection.h **** 
 326              		.loc 2 35 19 view .LVU87
 327 006a 41F04001 		orr	r1, r1, #64
 328 006e 1160     		str	r1, [r2]
  37:Src/include/SPI_Connection.h ****             __NOP();
 329              		.loc 2 37 9 is_stmt 1 view .LVU88
 330              	.LVL14:
 331              	.LBB66:
  37:Src/include/SPI_Connection.h ****             __NOP();
 332              		.loc 2 37 35 discriminator 1 view .LVU89
 333              	.LBE66:
  35:Src/include/SPI_Connection.h **** 
 334              		.loc 2 35 19 is_stmt 0 view .LVU90
 335 0070 4FF4FA72 		mov	r2, #500
 336              	.LVL15:
 337              	.L13:
 338              	.LBB67:
  38:Src/include/SPI_Connection.h ****         }
 339              		.loc 2 38 13 is_stmt 1 view .LVU91
 340              		.syntax unified
 341              	@ 38 "Src/include/SPI_Connection.h" 1
 342 0074 00BF     		nop
 343              	@ 0 "" 2
  37:Src/include/SPI_Connection.h ****             __NOP();
 344              		.loc 2 37 9 discriminator 3 view .LVU92
 345              	.LVL16:
  37:Src/include/SPI_Connection.h ****             __NOP();
 346              		.loc 2 37 35 discriminator 1 view .LVU93
 347              		.thumb
 348              		.syntax unified
 349 0076 013A     		subs	r2, r2, #1
 350              	.LVL17:
  37:Src/include/SPI_Connection.h ****             __NOP();
 351              		.loc 2 37 35 is_stmt 0 discriminator 1 view .LVU94
 352 0078 FCD1     		bne	.L13
 353              	.LBE67:
  41:Src/include/SPI_Connection.h ****     }
 354              		.loc 2 41 9 is_stmt 1 view .LVU95
  41:Src/include/SPI_Connection.h ****     }
 355              		.loc 2 41 16 is_stmt 0 view .LVU96
 356 007a 9A69     		ldr	r2, [r3, #24]
 357              	.LVL18:
  41:Src/include/SPI_Connection.h ****     }
 358              		.loc 2 41 21 view .LVU97
 359 007c 42F48042 		orr	r2, r2, #16384
 360 0080 9A61     		str	r2, [r3, #24]
 361              	.LBE65:
  42:Src/include/SPI_Connection.h **** 
 362              		.loc 2 42 5 view .LVU98
 363 0082 7047     		bx	lr
 364              	.L16:
 365              		.align	2
ARM GAS  /tmp/ccSTtYB6.s 			page 10


 366              	.L15:
 367 0084 00100240 		.word	1073876992
 368 0088 00040048 		.word	1207960576
 369 008c 00380040 		.word	1073756160
 370              		.cfi_endproc
 371              	.LFE151:
 372              		.cantunwind
 373              		.fnend
 375              		.weak	_ZN14SPI_ConnectionC1Ev
 376              		.thumb_set _ZN14SPI_ConnectionC1Ev,_ZN14SPI_ConnectionC2Ev
 377              		.section	.text._Z14Spi_Write_Datat,"ax",%progbits
 378              		.align	1
 379              		.global	_Z14Spi_Write_Datat
 380              		.syntax unified
 381              		.thumb
 382              		.thumb_func
 384              	_Z14Spi_Write_Datat:
 385              		.fnstart
 386              	.LVL19:
 387              	.LFB175:
   1:Src/main.c    **** #include <stm32g474xx.h>
   2:Src/main.c    **** 
   3:Src/main.c    **** #include "include/ScreenControl.h"
   4:Src/main.c    **** 
   5:Src/main.c    **** #include "include/FONT_A.h" //test font
   6:Src/main.c    **** 
   7:Src/main.c    **** #include "include/Font.h"
   8:Src/main.c    **** #include "include/Label.h"
   9:Src/main.c    **** #include "include/ScreenControl.h"
  10:Src/main.c    **** 
  11:Src/main.c    **** #include "include/SPI_Connection.h"
  12:Src/main.c    **** 
  13:Src/main.c    ****     // =========== OLED SPI ======================
  14:Src/main.c    ****     // PA5 -- SCK
  15:Src/main.c    ****     // PA7 -- MOSI
  16:Src/main.c    ****     // PA15 -- CS
  17:Src/main.c    ****     // PA14 -- RESET
  18:Src/main.c    **** 
  19:Src/main.c    ****     // PB12 -- SPI2_NSS --CS
  20:Src/main.c    ****     // PB13 -- SPI2_SCK --SCK
  21:Src/main.c    ****     // PB14 -- RESET OLED
  22:Src/main.c    ****     // PB15 -- SPI2_MOSI --SDO
  23:Src/main.c    **** 
  24:Src/main.c    **** #define		 CS_LOW 	GPIOB->BSRR = GPIO_BSRR_BR12;
  25:Src/main.c    **** #define 	 CS_HIGH 	GPIOB->BSRR = GPIO_BSRR_BS12;
  26:Src/main.c    **** 
  27:Src/main.c    **** static inline void write_char(uint8_t x_pos, uint8_t y_pos, const uint32_t *Char)  __attribute__((a
  28:Src/main.c    **** 
  29:Src/main.c    **** static inline void Spi_Init(void)
  30:Src/main.c    **** {
  31:Src/main.c    ****     // ą▓ą║ą╗čÄčćą░ąĄą╝ čéą░ą║čéąĖčĆąŠą▓ą░ąĮąĖąĄ PortB
  32:Src/main.c    ****     RCC->AHB2ENR  |= RCC_AHB2ENR_GPIOBEN;
  33:Src/main.c    **** 
  34:Src/main.c    ****     GPIOB->MODER  &= ~(GPIO_MODER_MODE12   | GPIO_MODER_MODE13   | GPIO_MODER_MODE14   | GPIO_MODER
  35:Src/main.c    ****     GPIOB->MODER  |=  (GPIO_MODER_MODE12_0 | GPIO_MODER_MODE13_1 | GPIO_MODER_MODE14_0 | GPIO_MODER
  36:Src/main.c    ****     GPIOB->AFR[1] &= ~( GPIO_AFRH_AFSEL13   | GPIO_AFRH_AFSEL15 ); // AF5 ą┤ą╗čÅ PB13, PB15
  37:Src/main.c    ****     GPIOB->AFR[1] |=  ( GPIO_AFRH_AFSEL13_2 | GPIO_AFRH_AFSEL13_0 | GPIO_AFRH_AFSEL15_2 | GPIO_AFRH
ARM GAS  /tmp/ccSTtYB6.s 			page 11


  38:Src/main.c    **** 
  39:Src/main.c    ****     GPIOB->BSRR |= GPIO_BSRR_BR14; // čłą╗ąĄą╝ čüą▒čĆąŠčü ąĮą░ PB14
  40:Src/main.c    **** 
  41:Src/main.c    ****     // ą▓ą║ą╗čÄčćą░ąĄą╝ SPI2 ąĮą░ čéą░ą║čéąĖčĆąŠą▓ą░ąĮąĖąĄ
  42:Src/main.c    ****     RCC->APB1ENR1 |= RCC_APB1ENR1_SPI2EN;
  43:Src/main.c    **** 
  44:Src/main.c    ****     SPI2->CR1 |= SPI_CR1_MSTR | SPI_CR1_CPOL | SPI_CR1_CPHA | SPI_CR1_BR_0 | SPI_CR1_BR_1 | SPI_CR1
  45:Src/main.c    ****     SPI2->CR2 |= SPI_CR2_DS_3;  // ą┤ą╗ąĖąĮą░ čäčĆąĄą╣ą╝ą░ 9-ą▒ąĖčé
  46:Src/main.c    ****     SPI2->CR2 &= ~(SPI_CR2_DS_0 | SPI_CR2_DS_1 | SPI_CR2_DS_2);
  47:Src/main.c    **** 
  48:Src/main.c    ****     CS_HIGH
  49:Src/main.c    **** 
  50:Src/main.c    ****     SPI2->CR1 |= SPI_CR1_SPE; // ą▓ą║ą╗čÄčćą░ąĄą╝ SPI
  51:Src/main.c    **** 
  52:Src/main.c    ****     for(uint32_t timer=0;timer<500;timer++) {
  53:Src/main.c    ****         __NOP();
  54:Src/main.c    ****     }
  55:Src/main.c    **** 
  56:Src/main.c    ****     GPIOB->BSRR |= GPIO_BSRR_BS14; // ąŠčéą║ą╗čÄčćą░ąĄą╝ čüą▒čĆąŠčü
  57:Src/main.c    **** }
  58:Src/main.c    **** 
  59:Src/main.c    **** static inline void joystickInit(){
  60:Src/main.c    **** /* ąĮą░čüčéčĆą░ąĖą▓ą░ąĄą╝ GPI10 */
  61:Src/main.c    ****     GPIOB->MODER &= ~GPIO_MODER_MODER10;    //Up             /* MODE10=00 */
  62:Src/main.c    ****     GPIOB->PUPDR |=  GPIO_PUPDR_PUPD10_0;                    /* PUPD10=01 */
  63:Src/main.c    **** 
  64:Src/main.c    ****     GPIOB->MODER &= ~GPIO_MODER_MODER2;     //Right
  65:Src/main.c    ****     GPIOB->PUPDR |=  GPIO_PUPDR_PUPD2_0;
  66:Src/main.c    **** 
  67:Src/main.c    ****     GPIOC->MODER &= ~GPIO_MODER_MODER4;     //Left
  68:Src/main.c    ****     GPIOC->PUPDR |=  GPIO_PUPDR_PUPD4_0;
  69:Src/main.c    **** 
  70:Src/main.c    ****     GPIOC->MODER &= ~GPIO_MODER_MODER5;     //Down
  71:Src/main.c    ****     GPIOC->PUPDR |=  GPIO_PUPDR_PUPD5_0;
  72:Src/main.c    **** 
  73:Src/main.c    ****     GPIOC->MODER &= ~GPIO_MODER_MODER13;    //Center
  74:Src/main.c    ****     GPIOC->PUPDR |=  GPIO_PUPDR_PUPD13_0;
  75:Src/main.c    **** 
  76:Src/main.c    ****     /*
  77:Src/main.c    ****         00: No pull-up, pull-down
  78:Src/main.c    ****         01: Pull-up
  79:Src/main.c    ****         10: Pull-down
  80:Src/main.c    ****         11: Reserved
  81:Src/main.c    ****     */
  82:Src/main.c    **** }
  83:Src/main.c    **** 
  84:Src/main.c    **** uint16_t Spi_Write_Data(uint16_t data)
  85:Src/main.c    **** {
 388              		.loc 1 85 1 is_stmt 1 view -0
 389              		.cfi_startproc
 390              		@ args = 0, pretend = 0, frame = 0
 391              		@ frame_needed = 0, uses_anonymous_args = 0
 392              		@ link register save eliminated.
  86:Src/main.c    ****         //ąČą┤čæą╝ ą┐ąŠą║ą░ ąŠą┐čāčüčéąŠčłąĖčéčüčÅ Tx ą▒čāčäąĄčĆ
  87:Src/main.c    **** 	while(!(SPI2->SR & SPI_SR_TXE));
 393              		.loc 1 87 2 view .LVU100
 394              		.loc 1 87 16 is_stmt 0 discriminator 1 view .LVU101
ARM GAS  /tmp/ccSTtYB6.s 			page 12


 395 0000 084B     		ldr	r3, .L24
 396              	.L18:
 397              		.loc 1 87 8 is_stmt 1 discriminator 1 view .LVU102
 398              		.loc 1 87 16 is_stmt 0 discriminator 1 view .LVU103
 399 0002 9A68     		ldr	r2, [r3, #8]
 400              		.loc 1 87 8 discriminator 1 view .LVU104
 401 0004 9207     		lsls	r2, r2, #30
 402 0006 FCD5     		bpl	.L18
  88:Src/main.c    **** 	//ą░ą║čéąĖą▓ąĖčĆčāąĄą╝ Chip Select
  89:Src/main.c    **** 	CS_LOW
 403              		.loc 1 89 2 is_stmt 1 view .LVU105
 404 0008 074A     		ldr	r2, .L24+4
 405 000a 4FF08051 		mov	r1, #268435456
 406 000e 9161     		str	r1, [r2, #24]
  90:Src/main.c    ****         //ąŠčéą┐čĆą░ą▓ą╗čÅąĄą╝ ą┤ą░ąĮąĮčŗąĄ
  91:Src/main.c    **** 	SPI2->DR = data;
 407              		.loc 1 91 2 view .LVU106
 408              		.loc 1 91 11 is_stmt 0 view .LVU107
 409 0010 D860     		str	r0, [r3, #12]
  92:Src/main.c    **** 
  93:Src/main.c    ****         //ąČą┤čæą╝ ą┐ąŠą║ą░ ą┐čĆąĖą┤čæčé ąŠčéą▓ąĄčé
  94:Src/main.c    **** 	while(!(SPI2->SR & SPI_SR_RXNE));
 410              		.loc 1 94 2 is_stmt 1 view .LVU108
 411              	.L19:
 412              		.loc 1 94 8 discriminator 1 view .LVU109
 413              		.loc 1 94 16 is_stmt 0 discriminator 1 view .LVU110
 414 0012 9968     		ldr	r1, [r3, #8]
 415              		.loc 1 94 8 discriminator 1 view .LVU111
 416 0014 C907     		lsls	r1, r1, #31
 417 0016 FCD5     		bpl	.L19
  95:Src/main.c    ****         //čüčćąĖčéčŗą▓ą░ąĄą╝ ą┐ąŠą╗čāčćąĄąĮąĮčŗąĄ ą┤ą░ąĮąĮčŗąĄ
  96:Src/main.c    **** 	data = SPI2->DR;
 418              		.loc 1 96 2 is_stmt 1 view .LVU112
 419              		.loc 1 96 15 is_stmt 0 view .LVU113
 420 0018 D868     		ldr	r0, [r3, #12]
 421              	.LVL20:
  97:Src/main.c    **** 	//ą┤ąĄą░ą║čéąĖą▓ąĖčĆčāąĄą╝ Chip Select
  98:Src/main.c    **** 	CS_HIGH
 422              		.loc 1 98 2 is_stmt 1 view .LVU114
 423 001a 4FF48053 		mov	r3, #4096
 424 001e 9361     		str	r3, [r2, #24]
  99:Src/main.c    ****         //ą▓ąŠąĘą▓čĆą░čēą░ąĄą╝ čéąŠ, čćčéąŠ ą┐čĆąŠčćąĖčéą░ą╗ąĖ
 100:Src/main.c    ****        return data;
 425              		.loc 1 100 8 view .LVU115
 101:Src/main.c    **** }
 426              		.loc 1 101 1 is_stmt 0 view .LVU116
 427 0020 80B2     		uxth	r0, r0
 428              		.loc 1 101 1 view .LVU117
 429 0022 7047     		bx	lr
 430              	.L25:
 431              		.align	2
 432              	.L24:
 433 0024 00380040 		.word	1073756160
 434 0028 00040048 		.word	1207960576
 435              		.cfi_endproc
 436              	.LFE175:
 437              		.cantunwind
ARM GAS  /tmp/ccSTtYB6.s 			page 13


 438              		.fnend
 440              		.section	.text._Z19SSD1322_SPI_Write_Dh,"ax",%progbits
 441              		.align	1
 442              		.global	_Z19SSD1322_SPI_Write_Dh
 443              		.syntax unified
 444              		.thumb
 445              		.thumb_func
 447              	_Z19SSD1322_SPI_Write_Dh:
 448              		.fnstart
 449              	.LVL21:
 450              	.LFB176:
 102:Src/main.c    **** 
 103:Src/main.c    **** void SSD1322_SPI_Write_D(uint8_t data) {
 451              		.loc 1 103 40 is_stmt 1 view -0
 452              		.cfi_startproc
 453              		@ args = 0, pretend = 0, frame = 0
 454              		@ frame_needed = 0, uses_anonymous_args = 0
 455              		@ link register save eliminated.
 104:Src/main.c    **** 
 105:Src/main.c    ****     Spi_Write_Data(0x0100 | data);
 456              		.loc 1 105 5 view .LVU119
 457              		.loc 1 105 19 is_stmt 0 view .LVU120
 458 0000 40F48070 		orr	r0, r0, #256
 459              	.LVL22:
 460              		.loc 1 105 19 view .LVU121
 461 0004 FFF7FEBF 		b	_Z14Spi_Write_Datat
 462              	.LVL23:
 463              		.cfi_endproc
 464              	.LFE176:
 465              		.cantunwind
 466              		.fnend
 468              		.section	.text._Z19SSD1322_SPI_Write_Ch,"ax",%progbits
 469              		.align	1
 470              		.global	_Z19SSD1322_SPI_Write_Ch
 471              		.syntax unified
 472              		.thumb
 473              		.thumb_func
 475              	_Z19SSD1322_SPI_Write_Ch:
 476              		.fnstart
 477              	.LVL24:
 478              	.LFB177:
 106:Src/main.c    **** }
 107:Src/main.c    **** 
 108:Src/main.c    **** void SSD1322_SPI_Write_C(uint8_t cmd) {
 479              		.loc 1 108 39 is_stmt 1 view -0
 480              		.cfi_startproc
 481              		@ args = 0, pretend = 0, frame = 0
 482              		@ frame_needed = 0, uses_anonymous_args = 0
 483              		@ link register save eliminated.
 109:Src/main.c    **** 
 110:Src/main.c    ****     Spi_Write_Data(cmd);
 484              		.loc 1 110 5 view .LVU123
 485              		.loc 1 110 19 is_stmt 0 view .LVU124
 486 0000 FFF7FEBF 		b	_Z14Spi_Write_Datat
 487              	.LVL25:
 488              		.loc 1 110 19 view .LVU125
 489              		.cfi_endproc
ARM GAS  /tmp/ccSTtYB6.s 			page 14


 490              	.LFE177:
 491              		.cantunwind
 492              		.fnend
 494              		.section	.text._Z20SSD1322_SPI_Write_CDhh,"ax",%progbits
 495              		.align	1
 496              		.global	_Z20SSD1322_SPI_Write_CDhh
 497              		.syntax unified
 498              		.thumb
 499              		.thumb_func
 501              	_Z20SSD1322_SPI_Write_CDhh:
 502              		.fnstart
 503              	.LVL26:
 504              	.LFB178:
 111:Src/main.c    **** }
 112:Src/main.c    **** 
 113:Src/main.c    **** void SSD1322_SPI_Write_CD(uint8_t cmd, uint8_t D0) {
 505              		.loc 1 113 52 is_stmt 1 view -0
 506              		.cfi_startproc
 507              		@ args = 0, pretend = 0, frame = 0
 508              		@ frame_needed = 0, uses_anonymous_args = 0
 114:Src/main.c    **** 
 115:Src/main.c    ****     SSD1322_SPI_Write_C(cmd);
 509              		.loc 1 115 5 view .LVU127
 510              	.LBB68:
 511              	.LBI68:
 108:Src/main.c    **** 
 512              		.loc 1 108 6 view .LVU128
 513              	.LBB69:
 110:Src/main.c    **** }
 514              		.loc 1 110 5 view .LVU129
 515              	.LBE69:
 516              	.LBE68:
 113:Src/main.c    **** 
 517              		.loc 1 113 52 is_stmt 0 view .LVU130
 518 0000 10B5     		push	{r4, lr}
 519              	.LCFI4:
 520              		.cfi_def_cfa_offset 8
 521              		.cfi_offset 4, -8
 522              		.cfi_offset 14, -4
 113:Src/main.c    **** 
 523              		.loc 1 113 52 view .LVU131
 524 0002 0C46     		mov	r4, r1
 525              	.LBB71:
 526              	.LBB70:
 110:Src/main.c    **** }
 527              		.loc 1 110 19 view .LVU132
 528 0004 FFF7FEFF 		bl	_Z14Spi_Write_Datat
 529              	.LVL27:
 110:Src/main.c    **** }
 530              		.loc 1 110 19 view .LVU133
 531              	.LBE70:
 532              	.LBE71:
 116:Src/main.c    ****     SSD1322_SPI_Write_D(D0);
 533              		.loc 1 116 5 is_stmt 1 view .LVU134
 534              		.loc 1 116 24 is_stmt 0 view .LVU135
 535 0008 2046     		mov	r0, r4
 117:Src/main.c    **** }
ARM GAS  /tmp/ccSTtYB6.s 			page 15


 536              		.loc 1 117 1 view .LVU136
 537 000a BDE81040 		pop	{r4, lr}
 538              	.LCFI5:
 539              		.cfi_restore 14
 540              		.cfi_restore 4
 541              		.cfi_def_cfa_offset 0
 542              	.LVL28:
 116:Src/main.c    ****     SSD1322_SPI_Write_D(D0);
 543              		.loc 1 116 24 view .LVU137
 544 000e FFF7FEBF 		b	_Z19SSD1322_SPI_Write_Dh
 545              	.LVL29:
 116:Src/main.c    ****     SSD1322_SPI_Write_D(D0);
 546              		.loc 1 116 24 view .LVU138
 547              		.cfi_endproc
 548              	.LFE178:
 549              		.cantunwind
 550              		.fnend
 552              		.section	.text._Z21SSD1322_SPI_Write_CDDhhh,"ax",%progbits
 553              		.align	1
 554              		.global	_Z21SSD1322_SPI_Write_CDDhhh
 555              		.syntax unified
 556              		.thumb
 557              		.thumb_func
 559              	_Z21SSD1322_SPI_Write_CDDhhh:
 560              		.fnstart
 561              	.LVL30:
 562              	.LFB179:
 118:Src/main.c    **** 
 119:Src/main.c    **** void SSD1322_SPI_Write_CDD(uint8_t cmd, uint8_t D0, uint8_t D1) {
 563              		.loc 1 119 65 is_stmt 1 view -0
 564              		.cfi_startproc
 565              		@ args = 0, pretend = 0, frame = 0
 566              		@ frame_needed = 0, uses_anonymous_args = 0
 120:Src/main.c    **** 
 121:Src/main.c    ****     SSD1322_SPI_Write_C(cmd);
 567              		.loc 1 121 5 view .LVU140
 568              	.LBB72:
 569              	.LBI72:
 108:Src/main.c    **** 
 570              		.loc 1 108 6 view .LVU141
 571              	.LBB73:
 110:Src/main.c    **** }
 572              		.loc 1 110 5 view .LVU142
 573              	.LBE73:
 574              	.LBE72:
 119:Src/main.c    **** 
 575              		.loc 1 119 65 is_stmt 0 view .LVU143
 576 0000 38B5     		push	{r3, r4, r5, lr}
 577              	.LCFI6:
 578              		.cfi_def_cfa_offset 16
 579              		.cfi_offset 3, -16
 580              		.cfi_offset 4, -12
 581              		.cfi_offset 5, -8
 582              		.cfi_offset 14, -4
 119:Src/main.c    **** 
 583              		.loc 1 119 65 view .LVU144
 584 0002 0D46     		mov	r5, r1
ARM GAS  /tmp/ccSTtYB6.s 			page 16


 585 0004 1446     		mov	r4, r2
 586              	.LBB75:
 587              	.LBB74:
 110:Src/main.c    **** }
 588              		.loc 1 110 19 view .LVU145
 589 0006 FFF7FEFF 		bl	_Z14Spi_Write_Datat
 590              	.LVL31:
 110:Src/main.c    **** }
 591              		.loc 1 110 19 view .LVU146
 592              	.LBE74:
 593              	.LBE75:
 122:Src/main.c    ****     SSD1322_SPI_Write_D(D0);
 594              		.loc 1 122 5 is_stmt 1 view .LVU147
 595              		.loc 1 122 24 is_stmt 0 view .LVU148
 596 000a 2846     		mov	r0, r5
 597 000c FFF7FEFF 		bl	_Z19SSD1322_SPI_Write_Dh
 598              	.LVL32:
 123:Src/main.c    ****     SSD1322_SPI_Write_D(D1);
 599              		.loc 1 123 5 is_stmt 1 view .LVU149
 600              		.loc 1 123 24 is_stmt 0 view .LVU150
 601 0010 2046     		mov	r0, r4
 124:Src/main.c    **** }
 602              		.loc 1 124 1 view .LVU151
 603 0012 BDE83840 		pop	{r3, r4, r5, lr}
 604              	.LCFI7:
 605              		.cfi_restore 14
 606              		.cfi_restore 5
 607              		.cfi_restore 4
 608              		.cfi_restore 3
 609              		.cfi_def_cfa_offset 0
 610              	.LVL33:
 123:Src/main.c    ****     SSD1322_SPI_Write_D(D1);
 611              		.loc 1 123 24 view .LVU152
 612 0016 FFF7FEBF 		b	_Z19SSD1322_SPI_Write_Dh
 613              	.LVL34:
 123:Src/main.c    ****     SSD1322_SPI_Write_D(D1);
 614              		.loc 1 123 24 view .LVU153
 615              		.cfi_endproc
 616              	.LFE179:
 617              		.cantunwind
 618              		.fnend
 620              		.section	.text._Z22SSD1322_SPI_Write_CDDDhhhh,"ax",%progbits
 621              		.align	1
 622              		.global	_Z22SSD1322_SPI_Write_CDDDhhhh
 623              		.syntax unified
 624              		.thumb
 625              		.thumb_func
 627              	_Z22SSD1322_SPI_Write_CDDDhhhh:
 628              		.fnstart
 629              	.LVL35:
 630              	.LFB180:
 125:Src/main.c    **** 
 126:Src/main.c    **** void SSD1322_SPI_Write_CDDD(uint8_t cmd, uint8_t D0, uint8_t D1, uint8_t D2) {
 631              		.loc 1 126 78 is_stmt 1 view -0
 632              		.cfi_startproc
 633              		@ args = 0, pretend = 0, frame = 0
 634              		@ frame_needed = 0, uses_anonymous_args = 0
ARM GAS  /tmp/ccSTtYB6.s 			page 17


 127:Src/main.c    **** 
 128:Src/main.c    ****     SSD1322_SPI_Write_C(cmd);
 635              		.loc 1 128 5 view .LVU155
 636              	.LBB76:
 637              	.LBI76:
 108:Src/main.c    **** 
 638              		.loc 1 108 6 view .LVU156
 639              	.LBB77:
 110:Src/main.c    **** }
 640              		.loc 1 110 5 view .LVU157
 641              	.LBE77:
 642              	.LBE76:
 126:Src/main.c    **** 
 643              		.loc 1 126 78 is_stmt 0 view .LVU158
 644 0000 70B5     		push	{r4, r5, r6, lr}
 645              	.LCFI8:
 646              		.cfi_def_cfa_offset 16
 647              		.cfi_offset 4, -16
 648              		.cfi_offset 5, -12
 649              		.cfi_offset 6, -8
 650              		.cfi_offset 14, -4
 126:Src/main.c    **** 
 651              		.loc 1 126 78 view .LVU159
 652 0002 0E46     		mov	r6, r1
 653 0004 1546     		mov	r5, r2
 654 0006 1C46     		mov	r4, r3
 655              	.LBB79:
 656              	.LBB78:
 110:Src/main.c    **** }
 657              		.loc 1 110 19 view .LVU160
 658 0008 FFF7FEFF 		bl	_Z14Spi_Write_Datat
 659              	.LVL36:
 110:Src/main.c    **** }
 660              		.loc 1 110 19 view .LVU161
 661              	.LBE78:
 662              	.LBE79:
 129:Src/main.c    ****     SSD1322_SPI_Write_D(D0);
 663              		.loc 1 129 5 is_stmt 1 view .LVU162
 664              		.loc 1 129 24 is_stmt 0 view .LVU163
 665 000c 3046     		mov	r0, r6
 666 000e FFF7FEFF 		bl	_Z19SSD1322_SPI_Write_Dh
 667              	.LVL37:
 130:Src/main.c    ****     SSD1322_SPI_Write_D(D1);
 668              		.loc 1 130 5 is_stmt 1 view .LVU164
 669              		.loc 1 130 24 is_stmt 0 view .LVU165
 670 0012 2846     		mov	r0, r5
 671 0014 FFF7FEFF 		bl	_Z19SSD1322_SPI_Write_Dh
 672              	.LVL38:
 131:Src/main.c    ****     SSD1322_SPI_Write_D(D2);
 673              		.loc 1 131 5 is_stmt 1 view .LVU166
 674              		.loc 1 131 24 is_stmt 0 view .LVU167
 675 0018 2046     		mov	r0, r4
 132:Src/main.c    **** }
 676              		.loc 1 132 1 view .LVU168
 677 001a BDE87040 		pop	{r4, r5, r6, lr}
 678              	.LCFI9:
 679              		.cfi_restore 14
ARM GAS  /tmp/ccSTtYB6.s 			page 18


 680              		.cfi_restore 6
 681              		.cfi_restore 5
 682              		.cfi_restore 4
 683              		.cfi_def_cfa_offset 0
 684              	.LVL39:
 131:Src/main.c    ****     SSD1322_SPI_Write_D(D2);
 685              		.loc 1 131 24 view .LVU169
 686 001e FFF7FEBF 		b	_Z19SSD1322_SPI_Write_Dh
 687              	.LVL40:
 131:Src/main.c    ****     SSD1322_SPI_Write_D(D2);
 688              		.loc 1 131 24 view .LVU170
 689              		.cfi_endproc
 690              	.LFE180:
 691              		.cantunwind
 692              		.fnend
 694              		.section	.text._Z23SSD1322_SPI_Write_CDDDDhhhhh,"ax",%progbits
 695              		.align	1
 696              		.global	_Z23SSD1322_SPI_Write_CDDDDhhhhh
 697              		.syntax unified
 698              		.thumb
 699              		.thumb_func
 701              	_Z23SSD1322_SPI_Write_CDDDDhhhhh:
 702              		.fnstart
 703              	.LVL41:
 704              	.LFB181:
 133:Src/main.c    **** 
 134:Src/main.c    **** void SSD1322_SPI_Write_CDDDD(uint8_t cmd, uint8_t D0, uint8_t D1, uint8_t D2, uint8_t D3) {
 705              		.loc 1 134 91 is_stmt 1 view -0
 706              		.cfi_startproc
 707              		@ args = 4, pretend = 0, frame = 0
 708              		@ frame_needed = 0, uses_anonymous_args = 0
 135:Src/main.c    **** 
 136:Src/main.c    ****     SSD1322_SPI_Write_C(cmd);
 709              		.loc 1 136 5 view .LVU172
 710              	.LBB80:
 711              	.LBI80:
 108:Src/main.c    **** 
 712              		.loc 1 108 6 view .LVU173
 713              	.LBB81:
 110:Src/main.c    **** }
 714              		.loc 1 110 5 view .LVU174
 715              	.LBE81:
 716              	.LBE80:
 134:Src/main.c    **** 
 717              		.loc 1 134 91 is_stmt 0 view .LVU175
 718 0000 F8B5     		push	{r3, r4, r5, r6, r7, lr}
 719              	.LCFI10:
 720              		.cfi_def_cfa_offset 24
 721              		.cfi_offset 3, -24
 722              		.cfi_offset 4, -20
 723              		.cfi_offset 5, -16
 724              		.cfi_offset 6, -12
 725              		.cfi_offset 7, -8
 726              		.cfi_offset 14, -4
 134:Src/main.c    **** 
 727              		.loc 1 134 91 view .LVU176
 728 0002 0E46     		mov	r6, r1
ARM GAS  /tmp/ccSTtYB6.s 			page 19


 729 0004 1546     		mov	r5, r2
 730 0006 1C46     		mov	r4, r3
 731 0008 9DF81870 		ldrb	r7, [sp, #24]	@ zero_extendqisi2
 732              	.LBB83:
 733              	.LBB82:
 110:Src/main.c    **** }
 734              		.loc 1 110 19 view .LVU177
 735 000c FFF7FEFF 		bl	_Z14Spi_Write_Datat
 736              	.LVL42:
 110:Src/main.c    **** }
 737              		.loc 1 110 19 view .LVU178
 738              	.LBE82:
 739              	.LBE83:
 137:Src/main.c    ****     SSD1322_SPI_Write_D(D0);
 740              		.loc 1 137 5 is_stmt 1 view .LVU179
 741              		.loc 1 137 24 is_stmt 0 view .LVU180
 742 0010 3046     		mov	r0, r6
 743 0012 FFF7FEFF 		bl	_Z19SSD1322_SPI_Write_Dh
 744              	.LVL43:
 138:Src/main.c    ****     SSD1322_SPI_Write_D(D1);
 745              		.loc 1 138 5 is_stmt 1 view .LVU181
 746              		.loc 1 138 24 is_stmt 0 view .LVU182
 747 0016 2846     		mov	r0, r5
 748 0018 FFF7FEFF 		bl	_Z19SSD1322_SPI_Write_Dh
 749              	.LVL44:
 139:Src/main.c    ****     SSD1322_SPI_Write_D(D2);
 750              		.loc 1 139 5 is_stmt 1 view .LVU183
 751              		.loc 1 139 24 is_stmt 0 view .LVU184
 752 001c 2046     		mov	r0, r4
 753 001e FFF7FEFF 		bl	_Z19SSD1322_SPI_Write_Dh
 754              	.LVL45:
 140:Src/main.c    ****     SSD1322_SPI_Write_D(D3);
 755              		.loc 1 140 5 is_stmt 1 view .LVU185
 756              		.loc 1 140 24 is_stmt 0 view .LVU186
 757 0022 3846     		mov	r0, r7
 141:Src/main.c    **** }
 758              		.loc 1 141 1 view .LVU187
 759 0024 BDE8F840 		pop	{r3, r4, r5, r6, r7, lr}
 760              	.LCFI11:
 761              		.cfi_restore 14
 762              		.cfi_restore 7
 763              		.cfi_restore 6
 764              		.cfi_restore 5
 765              		.cfi_restore 4
 766              		.cfi_restore 3
 767              		.cfi_def_cfa_offset 0
 768              	.LVL46:
 140:Src/main.c    ****     SSD1322_SPI_Write_D(D3);
 769              		.loc 1 140 24 view .LVU188
 770 0028 FFF7FEBF 		b	_Z19SSD1322_SPI_Write_Dh
 771              	.LVL47:
 772              		.cfi_endproc
 773              	.LFE181:
 774              		.cantunwind
 775              		.fnend
 777              		.section	.text._Z10invertCharPm,"ax",%progbits
 778              		.align	1
ARM GAS  /tmp/ccSTtYB6.s 			page 20


 779              		.global	_Z10invertCharPm
 780              		.syntax unified
 781              		.thumb
 782              		.thumb_func
 784              	_Z10invertCharPm:
 785              		.fnstart
 786              	.LVL48:
 787              	.LFB183:
 142:Src/main.c    **** 
 143:Src/main.c    **** 
 144:Src/main.c    **** /*
 145:Src/main.c    **** static uint8_t *u8x8_ssd1322_8to32(U8X8_UNUSED u8x8_t *u8x8, uint8_t *ptr)
 146:Src/main.c    **** {
 147:Src/main.c    ****   uint8_t v;
 148:Src/main.c    ****   uint8_t a,b;
 149:Src/main.c    ****   uint8_t i, j;
 150:Src/main.c    ****   uint8_t *dest;
 151:Src/main.c    **** 
 152:Src/main.c    ****   for( j = 0; j < 4; j++ )
 153:Src/main.c    ****   {
 154:Src/main.c    ****     dest = u8x8_ssd1322_to32_dest_buf;
 155:Src/main.c    ****     dest += j;
 156:Src/main.c    ****     a =*ptr;
 157:Src/main.c    ****     ptr++;
 158:Src/main.c    ****     b = *ptr;
 159:Src/main.c    ****     ptr++;
 160:Src/main.c    ****     for( i = 0; i < 8; i++ )
 161:Src/main.c    ****     {
 162:Src/main.c    ****       v = 0;
 163:Src/main.c    ****       if ( a&1 ) v |= 0xf0;
 164:Src/main.c    ****       if ( b&1 ) v |= 0x0f;
 165:Src/main.c    ****       *dest = v;
 166:Src/main.c    ****       dest+=4;
 167:Src/main.c    ****       a >>= 1;
 168:Src/main.c    ****       b >>= 1;
 169:Src/main.c    ****     }
 170:Src/main.c    ****   }
 171:Src/main.c    **** 
 172:Src/main.c    ****   return u8x8_ssd1322_to32_dest_buf;
 173:Src/main.c    **** }
 174:Src/main.c    **** 
 175:Src/main.c    **** void SSD1322_SPI_DrawTile(uint8_t x_pos, uint8_t x_offset, uint8_t y_pos, uint8_t y_offset, uint8_t
 176:Src/main.c    **** {
 177:Src/main.c    ****     uint8_t x;
 178:Src/main.c    ****     uint8_t y, c;
 179:Src/main.c    ****     uint8_t *ptr;
 180:Src/main.c    **** 
 181:Src/main.c    ****     x = x_pos;
 182:Src/main.c    ****     x *= 2;		// only every 4th col can be addressed
 183:Src/main.c    ****     x += x_offset;
 184:Src/main.c    **** 
 185:Src/main.c    ****     y = y_pos;
 186:Src/main.c    ****     y *= 8;
 187:Src/main.c    **** 
 188:Src/main.c    ****     SSD1322_SPI_Write_CDD(0x75,y, y+7); // set row address, moved out of the loop (issue 302)
 189:Src/main.c    **** 
 190:Src/main.c    ****     do
ARM GAS  /tmp/ccSTtYB6.s 			page 21


 191:Src/main.c    ****     {
 192:Src/main.c    ****         c = cnt;
 193:Src/main.c    ****         ptr = Data;
 194:Src/main.c    **** 
 195:Src/main.c    ****         do
 196:Src/main.c    ****         {
 197:Src/main.c    ****             SSD1322_SPI_Write_CDD(0x15, x, x+1);	// set column address, start, end
 198:Src/main.c    ****             SSD1322_SPI_Write_C(0x5c);	            // write to ram
 199:Src/main.c    **** 
 200:Src/main.c    ****             u8x8_cad_SendData(u8x8, 32, u8x8_ssd1322_8to32(u8x8, ptr));
 201:Src/main.c    **** 
 202:Src/main.c    ****             ptr += 8;
 203:Src/main.c    ****             x += 2;
 204:Src/main.c    ****             c--;
 205:Src/main.c    ****         } while( c > 0 );
 206:Src/main.c    **** 
 207:Src/main.c    ****         //x += 2;
 208:Src/main.c    ****         arg_int--;
 209:Src/main.c    ****     } while( arg_int > 0 );
 210:Src/main.c    **** }
 211:Src/main.c    **** */
 212:Src/main.c    **** 
 213:Src/main.c    **** union PixU8_t {
 214:Src/main.c    ****     struct {
 215:Src/main.c    ****         uint8_t pix0:4;
 216:Src/main.c    ****         uint8_t pix1:4;
 217:Src/main.c    ****         uint8_t pix2:4;
 218:Src/main.c    ****         uint8_t pix3:4;
 219:Src/main.c    ****     };
 220:Src/main.c    ****     uint8_t Data[2];
 221:Src/main.c    ****     uint16_t DataW;
 222:Src/main.c    **** };
 223:Src/main.c    **** 
 224:Src/main.c    **** 
 225:Src/main.c    **** const uint16_t OLED_Data_Length = 256*64/4;
 226:Src/main.c    **** 
 227:Src/main.c    **** PixU8_t OLED_Data[OLED_Data_Length] = {0};
 228:Src/main.c    **** 
 229:Src/main.c    **** static void write_char(const uint8_t x_pos, const uint8_t y_pos, const uint32_t *Char) {
 230:Src/main.c    ****     uint8_t char_pos = 0;
 231:Src/main.c    ****     // ąÆčŗą▓ąŠą┤ąĖą╝ čüąĖą╝ą▓ąŠą╗
 232:Src/main.c    ****     for(uint8_t i=0;i<8;i++) {// i - symbol height
 233:Src/main.c    ****         uint16_t pos = (256/4)*(7-i+y_pos)+(256/4-x_pos);
 234:Src/main.c    ****         OLED_Data[pos+1].DataW = Char[char_pos]>>16;
 235:Src/main.c    ****         OLED_Data[pos].DataW = Char[char_pos++];
 236:Src/main.c    ****     }
 237:Src/main.c    **** }
 238:Src/main.c    **** 
 239:Src/main.c    **** void invertChar(uint32_t *character){
 788              		.loc 1 239 37 is_stmt 1 view -0
 789              		.cfi_startproc
 790              		@ args = 0, pretend = 0, frame = 0
 791              		@ frame_needed = 0, uses_anonymous_args = 0
 792              		@ link register save eliminated.
 240:Src/main.c    ****     for(int i = 0; i < 8; i++){ //invert
 793              		.loc 1 240 5 view .LVU190
 794              	.LBB84:
ARM GAS  /tmp/ccSTtYB6.s 			page 22


 795              		.loc 1 240 22 discriminator 1 view .LVU191
 796 0000 031F     		subs	r3, r0, #4
 797              	.LBE84:
 239:Src/main.c    ****     for(int i = 0; i < 8; i++){ //invert
 798              		.loc 1 239 37 is_stmt 0 view .LVU192
 799 0002 1A46     		mov	r2, r3
 800 0004 1C30     		adds	r0, r0, #28
 801              	.LVL49:
 802              	.L33:
 803              	.LBB85:
 241:Src/main.c    ****         character[i] ^= 0xFFFFFFFF;
 804              		.loc 1 241 9 is_stmt 1 view .LVU193
 805              		.loc 1 241 22 is_stmt 0 view .LVU194
 806 0006 52F8041F 		ldr	r1, [r2, #4]!
 807 000a C943     		mvns	r1, r1
 240:Src/main.c    ****     for(int i = 0; i < 8; i++){ //invert
 808              		.loc 1 240 22 discriminator 1 view .LVU195
 809 000c 8242     		cmp	r2, r0
 810              		.loc 1 241 22 view .LVU196
 811 000e 1160     		str	r1, [r2]
 240:Src/main.c    ****     for(int i = 0; i < 8; i++){ //invert
 812              		.loc 1 240 5 is_stmt 1 discriminator 3 view .LVU197
 240:Src/main.c    ****     for(int i = 0; i < 8; i++){ //invert
 813              		.loc 1 240 22 discriminator 1 view .LVU198
 814 0010 F9D1     		bne	.L33
 815 0012 074A     		ldr	r2, .L37
 816              	.L34:
 817              	.LVL50:
 240:Src/main.c    ****     for(int i = 0; i < 8; i++){ //invert
 818              		.loc 1 240 22 is_stmt 0 discriminator 1 view .LVU199
 819              	.LBE85:
 820              	.LBB86:
 821              	.LBB87:
 822              	.LBB88:
 823              	.LBB89:
 233:Src/main.c    ****         OLED_Data[pos+1].DataW = Char[char_pos]>>16;
 824              		.loc 1 233 9 is_stmt 1 view .LVU200
 234:Src/main.c    ****         OLED_Data[pos].DataW = Char[char_pos++];
 825              		.loc 1 234 9 view .LVU201
 234:Src/main.c    ****         OLED_Data[pos].DataW = Char[char_pos++];
 826              		.loc 1 234 48 is_stmt 0 view .LVU202
 827 0014 53F8041F 		ldr	r1, [r3, #4]!
 828              	.LVL51:
 234:Src/main.c    ****         OLED_Data[pos].DataW = Char[char_pos++];
 829              		.loc 1 234 48 view .LVU203
 830 0018 090C     		lsrs	r1, r1, #16
 234:Src/main.c    ****         OLED_Data[pos].DataW = Char[char_pos++];
 831              		.loc 1 234 32 view .LVU204
 832 001a A2F8E814 		strh	r1, [r2, #1256]	@ movhi
 235:Src/main.c    ****     }
 833              		.loc 1 235 9 is_stmt 1 view .LVU205
 834              	.LVL52:
 235:Src/main.c    ****     }
 835              		.loc 1 235 30 is_stmt 0 view .LVU206
 836 001e 1968     		ldr	r1, [r3]
 837 0020 A2F8E614 		strh	r1, [r2, #1254]	@ movhi
 838              	.LBE89:
ARM GAS  /tmp/ccSTtYB6.s 			page 23


 232:Src/main.c    ****         uint16_t pos = (256/4)*(7-i+y_pos)+(256/4-x_pos);
 839              		.loc 1 232 5 is_stmt 1 discriminator 3 view .LVU207
 840              	.LVL53:
 232:Src/main.c    ****         uint16_t pos = (256/4)*(7-i+y_pos)+(256/4-x_pos);
 841              		.loc 1 232 22 discriminator 1 view .LVU208
 842 0024 8342     		cmp	r3, r0
 843 0026 A2F18002 		sub	r2, r2, #128
 844 002a F3D1     		bne	.L34
 845              	.LBE88:
 846              	.LBE87:
 847              	.LBE86:
 242:Src/main.c    ****     }
 243:Src/main.c    **** 
 244:Src/main.c    ****     write_char(13, 2, character);
 245:Src/main.c    **** }
 848              		.loc 1 245 1 is_stmt 0 view .LVU209
 849 002c 7047     		bx	lr
 850              	.L38:
 851 002e 00BF     		.align	2
 852              	.L37:
 853 0030 00000000 		.word	OLED_Data
 854              		.cfi_endproc
 855              	.LFE183:
 856              		.cantunwind
 857              		.fnend
 859              		.section	.text.startup.main,"ax",%progbits
 860              		.align	1
 861              		.global	main
 862              		.syntax unified
 863              		.thumb
 864              		.thumb_func
 866              	main:
 867              		.fnstart
 868              	.LFB184:
 246:Src/main.c    **** 
 247:Src/main.c    **** int main()
 248:Src/main.c    **** {
 869              		.loc 1 248 1 is_stmt 1 view -0
 870              		.cfi_startproc
 871              		@ args = 0, pretend = 0, frame = 8224
 872              		@ frame_needed = 0, uses_anonymous_args = 0
 249:Src/main.c    **** 
 250:Src/main.c    **** // PortInit:
 251:Src/main.c    **** 
 252:Src/main.c    ****     // PB1 -- ąøąĄą▓ąŠ
 253:Src/main.c    ****     // PB7 -- ą¤čĆą░ą▓ąŠ
 254:Src/main.c    **** 
 255:Src/main.c    ****     // PB10 -- ąÜąĮąŠą┐ą║ą░ ąÆą▓ąĄčĆčģ
 256:Src/main.c    **** 
 257:Src/main.c    ****     RCC->AHB2ENR |= RCC_AHB2ENR_GPIOBEN;     /* ą▓ą║ą╗čÄčćą░ąĄą╝ čéą░ą║čéąĖčĆąŠą▓ą░ąĮąĖąĄ PortB */
 873              		.loc 1 257 5 view .LVU211
 874              		.loc 1 257 10 is_stmt 0 view .LVU212
 875 0000 634B     		ldr	r3, .L45
 876 0002 DA6C     		ldr	r2, [r3, #76]
 877              		.loc 1 257 18 view .LVU213
 878 0004 42F00202 		orr	r2, r2, #2
 248:Src/main.c    **** 
ARM GAS  /tmp/ccSTtYB6.s 			page 24


 879              		.loc 1 248 1 view .LVU214
 880 0008 30B5     		push	{r4, r5, lr}
 881              	.LCFI12:
 882              		.cfi_def_cfa_offset 12
 883              		.cfi_offset 4, -12
 884              		.cfi_offset 5, -8
 885              		.cfi_offset 14, -4
 886              		.loc 1 257 18 view .LVU215
 887 000a DA64     		str	r2, [r3, #76]
 258:Src/main.c    ****     RCC->AHB2ENR |= RCC_AHB2ENR_GPIOCEN;
 888              		.loc 1 258 5 is_stmt 1 view .LVU216
 889              		.loc 1 258 10 is_stmt 0 view .LVU217
 890 000c DA6C     		ldr	r2, [r3, #76]
 891              		.loc 1 258 18 view .LVU218
 892 000e 42F00402 		orr	r2, r2, #4
 893 0012 DA64     		str	r2, [r3, #76]
 259:Src/main.c    ****     /* ąĮą░čüčéčĆą░ąĖą▓ą░ąĄą╝ GPIO1 */
 260:Src/main.c    ****     // GPIOB->MODER |=  GPIO_MODER_MODER1_0;    /* MODE1=01 */
 261:Src/main.c    ****     // GPIOB->MODER &= ~GPIO_MODER_MODER1_1;    /* MODE1=01 */
 262:Src/main.c    ****     GPIOB->MODER = (GPIOB->MODER & ~GPIO_MODER_MODER1) | GPIO_MODER_MODER1_0;    /* MODE1=01 */
 894              		.loc 1 262 5 is_stmt 1 view .LVU219
 895              		.loc 1 262 28 is_stmt 0 view .LVU220
 896 0014 5F4B     		ldr	r3, .L45+4
 897 0016 1A68     		ldr	r2, [r3]
 898              		.loc 1 262 34 view .LVU221
 899 0018 22F00C02 		bic	r2, r2, #12
 900              		.loc 1 262 56 view .LVU222
 901 001c 42F00402 		orr	r2, r2, #4
 902              		.loc 1 262 18 view .LVU223
 903 0020 1A60     		str	r2, [r3]
 263:Src/main.c    ****     GPIOB->MODER = (GPIOB->MODER & ~GPIO_MODER_MODER7) | GPIO_MODER_MODER7_0;    /* MODE7=01 */ //s
 904              		.loc 1 263 5 is_stmt 1 view .LVU224
 905              		.loc 1 263 28 is_stmt 0 view .LVU225
 906 0022 1A68     		ldr	r2, [r3]
 907              		.loc 1 263 34 view .LVU226
 908 0024 22F44042 		bic	r2, r2, #49152
 909              		.loc 1 263 56 view .LVU227
 910 0028 42F48042 		orr	r2, r2, #16384
 911              		.loc 1 263 18 view .LVU228
 912 002c 1A60     		str	r2, [r3]
 264:Src/main.c    **** 
 265:Src/main.c    ****     /*
 266:Src/main.c    ****         00: Input mode
 267:Src/main.c    ****         01: General purpose output mode
 268:Src/main.c    ****         10: Alternate function mode
 269:Src/main.c    ****         11: Analog mode (reset state)
 270:Src/main.c    ****     */
 271:Src/main.c    **** 
 272:Src/main.c    ****     /* ąĮą░čüčéčĆą░ąĖą▓ą░ąĄą╝ GPI10 */
 273:Src/main.c    ****     /*
 274:Src/main.c    ****     GPIOB->MODER &= ~GPIO_MODER_MODER10;     // MODE10=00
 275:Src/main.c    ****     GPIOB->PUPDR |=  GPIO_PUPDR_PUPD10_0;    // PUPD10=01
 276:Src/main.c    ****     */
 277:Src/main.c    ****     joystickInit();
 913              		.loc 1 277 5 is_stmt 1 view .LVU229
 914              	.LBB113:
 915              	.LBI113:
ARM GAS  /tmp/ccSTtYB6.s 			page 25


  59:Src/main.c    **** /* ąĮą░čüčéčĆą░ąĖą▓ą░ąĄą╝ GPI10 */
 916              		.loc 1 59 20 view .LVU230
 917              	.LBB114:
  61:Src/main.c    ****     GPIOB->PUPDR |=  GPIO_PUPDR_PUPD10_0;                    /* PUPD10=01 */
 918              		.loc 1 61 5 view .LVU231
  61:Src/main.c    ****     GPIOB->PUPDR |=  GPIO_PUPDR_PUPD10_0;                    /* PUPD10=01 */
 919              		.loc 1 61 12 is_stmt 0 view .LVU232
 920 002e 1A68     		ldr	r2, [r3]
  61:Src/main.c    ****     GPIOB->PUPDR |=  GPIO_PUPDR_PUPD10_0;                    /* PUPD10=01 */
 921              		.loc 1 61 18 view .LVU233
 922 0030 22F44012 		bic	r2, r2, #3145728
 923 0034 1A60     		str	r2, [r3]
  62:Src/main.c    **** 
 924              		.loc 1 62 5 is_stmt 1 view .LVU234
  62:Src/main.c    **** 
 925              		.loc 1 62 12 is_stmt 0 view .LVU235
 926 0036 DA68     		ldr	r2, [r3, #12]
  62:Src/main.c    **** 
 927              		.loc 1 62 18 view .LVU236
 928 0038 42F48012 		orr	r2, r2, #1048576
 929 003c DA60     		str	r2, [r3, #12]
  64:Src/main.c    ****     GPIOB->PUPDR |=  GPIO_PUPDR_PUPD2_0;
 930              		.loc 1 64 5 is_stmt 1 view .LVU237
  64:Src/main.c    ****     GPIOB->PUPDR |=  GPIO_PUPDR_PUPD2_0;
 931              		.loc 1 64 12 is_stmt 0 view .LVU238
 932 003e 1A68     		ldr	r2, [r3]
  64:Src/main.c    ****     GPIOB->PUPDR |=  GPIO_PUPDR_PUPD2_0;
 933              		.loc 1 64 18 view .LVU239
 934 0040 22F03002 		bic	r2, r2, #48
 935 0044 1A60     		str	r2, [r3]
  65:Src/main.c    **** 
 936              		.loc 1 65 5 is_stmt 1 view .LVU240
  65:Src/main.c    **** 
 937              		.loc 1 65 12 is_stmt 0 view .LVU241
 938 0046 DA68     		ldr	r2, [r3, #12]
  65:Src/main.c    **** 
 939              		.loc 1 65 18 view .LVU242
 940 0048 42F01002 		orr	r2, r2, #16
 941 004c DA60     		str	r2, [r3, #12]
  67:Src/main.c    ****     GPIOC->PUPDR |=  GPIO_PUPDR_PUPD4_0;
 942              		.loc 1 67 5 is_stmt 1 view .LVU243
  67:Src/main.c    ****     GPIOC->PUPDR |=  GPIO_PUPDR_PUPD4_0;
 943              		.loc 1 67 12 is_stmt 0 view .LVU244
 944 004e D3F80024 		ldr	r2, [r3, #1024]
  67:Src/main.c    ****     GPIOC->PUPDR |=  GPIO_PUPDR_PUPD4_0;
 945              		.loc 1 67 18 view .LVU245
 946 0052 22F44072 		bic	r2, r2, #768
 947 0056 C3F80024 		str	r2, [r3, #1024]
  68:Src/main.c    **** 
 948              		.loc 1 68 5 is_stmt 1 view .LVU246
  68:Src/main.c    **** 
 949              		.loc 1 68 12 is_stmt 0 view .LVU247
 950 005a D3F80C24 		ldr	r2, [r3, #1036]
  68:Src/main.c    **** 
 951              		.loc 1 68 18 view .LVU248
 952 005e 42F48072 		orr	r2, r2, #256
 953 0062 C3F80C24 		str	r2, [r3, #1036]
ARM GAS  /tmp/ccSTtYB6.s 			page 26


  70:Src/main.c    ****     GPIOC->PUPDR |=  GPIO_PUPDR_PUPD5_0;
 954              		.loc 1 70 5 is_stmt 1 view .LVU249
  70:Src/main.c    ****     GPIOC->PUPDR |=  GPIO_PUPDR_PUPD5_0;
 955              		.loc 1 70 12 is_stmt 0 view .LVU250
 956 0066 D3F80024 		ldr	r2, [r3, #1024]
  70:Src/main.c    ****     GPIOC->PUPDR |=  GPIO_PUPDR_PUPD5_0;
 957              		.loc 1 70 18 view .LVU251
 958 006a 22F44062 		bic	r2, r2, #3072
 959 006e C3F80024 		str	r2, [r3, #1024]
  71:Src/main.c    **** 
 960              		.loc 1 71 5 is_stmt 1 view .LVU252
  71:Src/main.c    **** 
 961              		.loc 1 71 12 is_stmt 0 view .LVU253
 962 0072 D3F80C24 		ldr	r2, [r3, #1036]
  71:Src/main.c    **** 
 963              		.loc 1 71 18 view .LVU254
 964 0076 42F48062 		orr	r2, r2, #1024
 965 007a C3F80C24 		str	r2, [r3, #1036]
  73:Src/main.c    ****     GPIOC->PUPDR |=  GPIO_PUPDR_PUPD13_0;
 966              		.loc 1 73 5 is_stmt 1 view .LVU255
  73:Src/main.c    ****     GPIOC->PUPDR |=  GPIO_PUPDR_PUPD13_0;
 967              		.loc 1 73 12 is_stmt 0 view .LVU256
 968 007e D3F80024 		ldr	r2, [r3, #1024]
  73:Src/main.c    ****     GPIOC->PUPDR |=  GPIO_PUPDR_PUPD13_0;
 969              		.loc 1 73 18 view .LVU257
 970 0082 22F04062 		bic	r2, r2, #201326592
 971 0086 C3F80024 		str	r2, [r3, #1024]
  74:Src/main.c    **** 
 972              		.loc 1 74 5 is_stmt 1 view .LVU258
  74:Src/main.c    **** 
 973              		.loc 1 74 12 is_stmt 0 view .LVU259
 974 008a D3F80C24 		ldr	r2, [r3, #1036]
 975              	.LBE114:
 976              	.LBE113:
 248:Src/main.c    **** 
 977              		.loc 1 248 1 view .LVU260
 978 008e ADF5005D 		sub	sp, sp, #8192
 979              	.LCFI13:
 980              		.cfi_def_cfa_offset 8204
 981 0092 89B0     		sub	sp, sp, #36
 982              	.LCFI14:
 983              		.cfi_def_cfa_offset 8240
 984              	.LBB116:
 985              	.LBB115:
  74:Src/main.c    **** 
 986              		.loc 1 74 18 view .LVU261
 987 0094 42F08062 		orr	r2, r2, #67108864
 988 0098 C3F80C24 		str	r2, [r3, #1036]
 989              	.LBE115:
 990              	.LBE116:
 278:Src/main.c    **** 
 279:Src/main.c    ****     /*
 280:Src/main.c    ****         00: No pull-up, pull-down
 281:Src/main.c    ****         01: Pull-up
 282:Src/main.c    ****         10: Pull-down
 283:Src/main.c    ****         11: Reserved
 284:Src/main.c    ****     */
ARM GAS  /tmp/ccSTtYB6.s 			page 27


 285:Src/main.c    **** 
 286:Src/main.c    **** #define TESTn
 287:Src/main.c    **** 
 288:Src/main.c    **** #ifndef TEST
 289:Src/main.c    **** 
 290:Src/main.c    ****     //EXPERIMANTAL \/----------------------------------------------\/
 291:Src/main.c    **** 
 292:Src/main.c    ****     SPI_Connection connection;              //Create SPI2 connection object
 991              		.loc 1 292 5 is_stmt 1 view .LVU262
 992              		.loc 1 292 20 is_stmt 0 view .LVU263
 993 009c 6846     		mov	r0, sp
 994 009e FFF7FEFF 		bl	_ZN14SPI_ConnectionC1Ev
 995              	.LVL54:
 293:Src/main.c    ****     ScreenControl screen(&connection);      //Create Screen control handler and bind to SPI2 connec
 996              		.loc 1 293 5 is_stmt 1 view .LVU264
 997              	.LBB117:
 998              	.LBI117:
 999              		.file 3 "Src/include/ScreenControl.h"
   1:Src/include/ScreenControl.h **** #ifndef SCREEN_CONTROL_H
   2:Src/include/ScreenControl.h **** #define SCREEN_CONTROL_H
   3:Src/include/ScreenControl.h **** 
   4:Src/include/ScreenControl.h **** //#include <vector>
   5:Src/include/ScreenControl.h **** 
   6:Src/include/ScreenControl.h **** #include <stm32g474xx.h>
   7:Src/include/ScreenControl.h **** 
   8:Src/include/ScreenControl.h **** #include "Label.h"
   9:Src/include/ScreenControl.h **** #include "Font.h"
  10:Src/include/ScreenControl.h **** 
  11:Src/include/ScreenControl.h **** #include "FONT_A.h"
  12:Src/include/ScreenControl.h **** 
  13:Src/include/ScreenControl.h **** #include "SPI_Connection.h"
  14:Src/include/ScreenControl.h **** 
  15:Src/include/ScreenControl.h **** //add pages later
  16:Src/include/ScreenControl.h **** 
  17:Src/include/ScreenControl.h **** class ScreenControl{
  18:Src/include/ScreenControl.h **** private:
  19:Src/include/ScreenControl.h ****     SPI_Connection* connection = nullptr;
  20:Src/include/ScreenControl.h **** 
  21:Src/include/ScreenControl.h ****     uint8_t labelNum = 4;
  22:Src/include/ScreenControl.h ****     Label* labels[4] = {nullptr, nullptr, nullptr, nullptr}; //tmp, remove
  23:Src/include/ScreenControl.h **** 
  24:Src/include/ScreenControl.h ****     //std::vector<Label> labels; //unsafe
  25:Src/include/ScreenControl.h ****     const uint16_t dataLen = 256*64/2;
  26:Src/include/ScreenControl.h ****     uint8_t visualData[256*64/2] = {0};
  27:Src/include/ScreenControl.h **** 
  28:Src/include/ScreenControl.h **** public:
  29:Src/include/ScreenControl.h ****     ScreenControl(SPI_Connection* con){
 1000              		.loc 3 29 5 view .LVU265
 1001              	.LBB118:
 1002              	.LBB119:
 1003              		.loc 3 29 39 is_stmt 0 view .LVU266
 1004 00a2 4FF40052 		mov	r2, #8192
 1005 00a6 0021     		movs	r1, #0
 1006 00a8 0DF11E00 		add	r0, sp, #30
 1007 00ac FFF7FEFF 		bl	memset
 1008              	.LVL55:
  30:Src/include/ScreenControl.h ****         connection = con;
ARM GAS  /tmp/ccSTtYB6.s 			page 28


 1009              		.loc 3 30 9 is_stmt 1 view .LVU267
 1010              		.loc 3 30 9 is_stmt 0 view .LVU268
 1011              	.LBE119:
 1012              	.LBE118:
 1013              	.LBE117:
 294:Src/main.c    **** 
 295:Src/main.c    ****     connection.SSD1322_write_CD(0xfd, 0x12);                 // unlock
 1014              		.loc 1 295 5 is_stmt 1 view .LVU269
 1015              		.loc 1 295 32 is_stmt 0 view .LVU270
 1016 00b0 1221     		movs	r1, #18
 1017 00b2 FD20     		movs	r0, #253
 1018 00b4 FFF7FEFF 		bl	_ZN14SPI_Connection16SSD1322_write_CDEhh.isra.0
 1019              	.LVL56:
 296:Src/main.c    ****     connection.SSD1322_write_C(0xae);                        // display off
 1020              		.loc 1 296 5 is_stmt 1 view .LVU271
 1021              	.LBB120:
 1022              	.LBI120:
  68:Src/include/SPI_Connection.h ****         write_data(cmd);
 1023              		.loc 2 68 10 view .LVU272
 1024              	.LBB121:
  69:Src/include/SPI_Connection.h ****     }
 1025              		.loc 2 69 9 view .LVU273
  69:Src/include/SPI_Connection.h ****     }
 1026              		.loc 2 69 19 is_stmt 0 view .LVU274
 1027 00b8 AE20     		movs	r0, #174
 1028 00ba FFF7FEFF 		bl	_ZN14SPI_Connection10write_dataEt.isra.0
 1029              	.LVL57:
  69:Src/include/SPI_Connection.h ****     }
 1030              		.loc 2 69 19 view .LVU275
 1031              	.LBE121:
 1032              	.LBE120:
 297:Src/main.c    ****     connection.SSD1322_write_CD(0xb3, 0x91);                 // set display clock divide ratio/osci
 1033              		.loc 1 297 5 is_stmt 1 view .LVU276
 1034              		.loc 1 297 32 is_stmt 0 view .LVU277
 1035 00be 9121     		movs	r1, #145
 1036 00c0 B320     		movs	r0, #179
 1037 00c2 FFF7FEFF 		bl	_ZN14SPI_Connection16SSD1322_write_CDEhh.isra.0
 1038              	.LVL58:
 298:Src/main.c    ****     connection.SSD1322_write_CD(0xca, 0x3f);                 // multiplex ratio 1/64 Duty (0x0F~0x3
 1039              		.loc 1 298 5 is_stmt 1 view .LVU278
 1040              		.loc 1 298 32 is_stmt 0 view .LVU279
 1041 00c6 3F21     		movs	r1, #63
 1042 00c8 CA20     		movs	r0, #202
 1043 00ca FFF7FEFF 		bl	_ZN14SPI_Connection16SSD1322_write_CDEhh.isra.0
 1044              	.LVL59:
 299:Src/main.c    ****     connection.SSD1322_write_CD(0xa2, 0x00);                 // display offset, shift mapping ram c
 1045              		.loc 1 299 5 is_stmt 1 view .LVU280
 1046              		.loc 1 299 32 is_stmt 0 view .LVU281
 1047 00ce 0021     		movs	r1, #0
 1048 00d0 A220     		movs	r0, #162
 1049 00d2 FFF7FEFF 		bl	_ZN14SPI_Connection16SSD1322_write_CDEhh.isra.0
 1050              	.LVL60:
 300:Src/main.c    ****     connection.SSD1322_write_CD(0xa1, 0x00);                 // display start line
 1051              		.loc 1 300 5 is_stmt 1 view .LVU282
 1052              		.loc 1 300 32 is_stmt 0 view .LVU283
 1053 00d6 0021     		movs	r1, #0
 1054 00d8 A120     		movs	r0, #161
ARM GAS  /tmp/ccSTtYB6.s 			page 29


 1055 00da FFF7FEFF 		bl	_ZN14SPI_Connection16SSD1322_write_CDEhh.isra.0
 1056              	.LVL61:
 301:Src/main.c    ****     // SSD1322_SPI_Write_CDD(0xa0, 0x14, 0x11);           // Set Re-Map / Dual COM Line Mode
 302:Src/main.c    ****     //SSD1322_SPI_Write_CDD(0xa0, 0x06, 0x11);          // Set Re-Map / Dual COM Line Mode
 303:Src/main.c    ****     connection.SSD1322_write_C2D(0xa0, 0x02, 0x11);          // Set Re-Map / Dual COM Line Mode
 1057              		.loc 1 303 5 is_stmt 1 view .LVU284
 1058              		.loc 1 303 33 is_stmt 0 view .LVU285
 1059 00de 1122     		movs	r2, #17
 1060 00e0 0221     		movs	r1, #2
 1061 00e2 A020     		movs	r0, #160
 1062 00e4 FFF7FEFF 		bl	_ZN14SPI_Connection17SSD1322_write_C2DEhhh.isra.0
 1063              	.LVL62:
 304:Src/main.c    ****     connection.SSD1322_write_CD(0xab, 0x01);                 // Enable Internal VDD Regulator
 1064              		.loc 1 304 5 is_stmt 1 view .LVU286
 1065              		.loc 1 304 32 is_stmt 0 view .LVU287
 1066 00e8 0121     		movs	r1, #1
 1067 00ea AB20     		movs	r0, #171
 1068 00ec FFF7FEFF 		bl	_ZN14SPI_Connection16SSD1322_write_CDEhh.isra.0
 1069              	.LVL63:
 305:Src/main.c    ****     connection.SSD1322_write_C2D(0xb4, 0xa0, 0x05|0xfd);    // Display Enhancement A
 1070              		.loc 1 305 5 is_stmt 1 view .LVU288
 1071              		.loc 1 305 33 is_stmt 0 view .LVU289
 1072 00f0 FD22     		movs	r2, #253
 1073 00f2 A021     		movs	r1, #160
 1074 00f4 B420     		movs	r0, #180
 1075 00f6 FFF7FEFF 		bl	_ZN14SPI_Connection17SSD1322_write_C2DEhhh.isra.0
 1076              	.LVL64:
 306:Src/main.c    ****     connection.SSD1322_write_CD(0xc1, 0xAf);                 // contrast
 1077              		.loc 1 306 5 is_stmt 1 view .LVU290
 1078              		.loc 1 306 32 is_stmt 0 view .LVU291
 1079 00fa AF21     		movs	r1, #175
 1080 00fc C120     		movs	r0, #193
 1081 00fe FFF7FEFF 		bl	_ZN14SPI_Connection16SSD1322_write_CDEhh.isra.0
 1082              	.LVL65:
 307:Src/main.c    ****     connection.SSD1322_write_CD(0xc7, 0x0f);                 // Set Scale Factor of Segment Output 
 1083              		.loc 1 307 5 is_stmt 1 view .LVU292
 1084              		.loc 1 307 32 is_stmt 0 view .LVU293
 1085 0102 0F21     		movs	r1, #15
 1086 0104 C720     		movs	r0, #199
 1087 0106 FFF7FEFF 		bl	_ZN14SPI_Connection16SSD1322_write_CDEhh.isra.0
 1088              	.LVL66:
 308:Src/main.c    ****     connection.SSD1322_write_C(0xb9);                        // linear grayscale
 1089              		.loc 1 308 5 is_stmt 1 view .LVU294
 1090              	.LBB122:
 1091              	.LBI122:
  68:Src/include/SPI_Connection.h ****         write_data(cmd);
 1092              		.loc 2 68 10 view .LVU295
 1093              	.LBB123:
  69:Src/include/SPI_Connection.h ****     }
 1094              		.loc 2 69 9 view .LVU296
  69:Src/include/SPI_Connection.h ****     }
 1095              		.loc 2 69 19 is_stmt 0 view .LVU297
 1096 010a B920     		movs	r0, #185
 1097 010c FFF7FEFF 		bl	_ZN14SPI_Connection10write_dataEt.isra.0
 1098              	.LVL67:
  69:Src/include/SPI_Connection.h ****     }
 1099              		.loc 2 69 19 view .LVU298
ARM GAS  /tmp/ccSTtYB6.s 			page 30


 1100              	.LBE123:
 1101              	.LBE122:
 309:Src/main.c    ****     connection.SSD1322_write_CD(0xb1, 0xe2);                 // Phase 1 (Reset) & Phase 2 (Pre-Char
 1102              		.loc 1 309 5 is_stmt 1 view .LVU299
 1103              		.loc 1 309 32 is_stmt 0 view .LVU300
 1104 0110 E221     		movs	r1, #226
 1105 0112 B120     		movs	r0, #177
 1106 0114 FFF7FEFF 		bl	_ZN14SPI_Connection16SSD1322_write_CDEhh.isra.0
 1107              	.LVL68:
 310:Src/main.c    ****     connection.SSD1322_write_C2D(0xd1, 0x82|0x20, 0x20);   // Display Enhancement B
 1108              		.loc 1 310 5 is_stmt 1 view .LVU301
 1109              		.loc 1 310 33 is_stmt 0 view .LVU302
 1110 0118 2022     		movs	r2, #32
 1111 011a A221     		movs	r1, #162
 1112 011c D120     		movs	r0, #209
 1113 011e FFF7FEFF 		bl	_ZN14SPI_Connection17SSD1322_write_C2DEhhh.isra.0
 1114              	.LVL69:
 311:Src/main.c    ****     connection.SSD1322_write_CD(0xbb, 0x1f);                 // precharge  voltage
 1115              		.loc 1 311 5 is_stmt 1 view .LVU303
 1116              		.loc 1 311 32 is_stmt 0 view .LVU304
 1117 0122 1F21     		movs	r1, #31
 1118 0124 BB20     		movs	r0, #187
 1119 0126 FFF7FEFF 		bl	_ZN14SPI_Connection16SSD1322_write_CDEhh.isra.0
 1120              	.LVL70:
 312:Src/main.c    ****     connection.SSD1322_write_CD(0xb6, 0x08);                 // precharge  period
 1121              		.loc 1 312 5 is_stmt 1 view .LVU305
 1122              		.loc 1 312 32 is_stmt 0 view .LVU306
 1123 012a 0821     		movs	r1, #8
 1124 012c B620     		movs	r0, #182
 1125 012e FFF7FEFF 		bl	_ZN14SPI_Connection16SSD1322_write_CDEhh.isra.0
 1126              	.LVL71:
 313:Src/main.c    ****     connection.SSD1322_write_CD(0xbe, 0x07);                 // vcomh
 1127              		.loc 1 313 5 is_stmt 1 view .LVU307
 1128              		.loc 1 313 32 is_stmt 0 view .LVU308
 1129 0132 0721     		movs	r1, #7
 1130 0134 BE20     		movs	r0, #190
 1131 0136 FFF7FEFF 		bl	_ZN14SPI_Connection16SSD1322_write_CDEhh.isra.0
 1132              	.LVL72:
 314:Src/main.c    ****     connection.SSD1322_write_C(0xa6);                        // normal display
 1133              		.loc 1 314 5 is_stmt 1 view .LVU309
 1134              	.LBB124:
 1135              	.LBI124:
  68:Src/include/SPI_Connection.h ****         write_data(cmd);
 1136              		.loc 2 68 10 view .LVU310
 1137              	.LBB125:
  69:Src/include/SPI_Connection.h ****     }
 1138              		.loc 2 69 9 view .LVU311
  69:Src/include/SPI_Connection.h ****     }
 1139              		.loc 2 69 19 is_stmt 0 view .LVU312
 1140 013a A620     		movs	r0, #166
 1141 013c FFF7FEFF 		bl	_ZN14SPI_Connection10write_dataEt.isra.0
 1142              	.LVL73:
  69:Src/include/SPI_Connection.h ****     }
 1143              		.loc 2 69 19 view .LVU313
 1144              	.LBE125:
 1145              	.LBE124:
 315:Src/main.c    ****     connection.SSD1322_write_C(0xa9);                        // exit partial display
ARM GAS  /tmp/ccSTtYB6.s 			page 31


 1146              		.loc 1 315 5 is_stmt 1 view .LVU314
 1147              	.LBB126:
 1148              	.LBI126:
  68:Src/include/SPI_Connection.h ****         write_data(cmd);
 1149              		.loc 2 68 10 view .LVU315
 1150              	.LBB127:
  69:Src/include/SPI_Connection.h ****     }
 1151              		.loc 2 69 9 view .LVU316
  69:Src/include/SPI_Connection.h ****     }
 1152              		.loc 2 69 19 is_stmt 0 view .LVU317
 1153 0140 A920     		movs	r0, #169
 1154 0142 FFF7FEFF 		bl	_ZN14SPI_Connection10write_dataEt.isra.0
 1155              	.LVL74:
  69:Src/include/SPI_Connection.h ****     }
 1156              		.loc 2 69 19 view .LVU318
 1157              	.LBE127:
 1158              	.LBE126:
 316:Src/main.c    **** 
 317:Src/main.c    ****     connection.SSD1322_write_C(0xAF);                        // ąÆą║ą╗čÄčćą░ąĄą╝ čŹą║čĆą░ąĮ
 1159              		.loc 1 317 5 is_stmt 1 view .LVU319
 1160              	.LBB128:
 1161              	.LBI128:
  68:Src/include/SPI_Connection.h ****         write_data(cmd);
 1162              		.loc 2 68 10 view .LVU320
 1163              	.LBB129:
  69:Src/include/SPI_Connection.h ****     }
 1164              		.loc 2 69 9 view .LVU321
  69:Src/include/SPI_Connection.h ****     }
 1165              		.loc 2 69 19 is_stmt 0 view .LVU322
 1166 0146 AF20     		movs	r0, #175
 1167 0148 FFF7FEFF 		bl	_ZN14SPI_Connection10write_dataEt.isra.0
 1168              	.LVL75:
  69:Src/include/SPI_Connection.h ****     }
 1169              		.loc 2 69 19 view .LVU323
 1170              	.LBE129:
 1171              	.LBE128:
 318:Src/main.c    **** 
 319:Src/main.c    ****     for(uint32_t i = 0; i<1000; i++) {
 1172              		.loc 1 319 5 is_stmt 1 view .LVU324
 1173              	.LBB131:
 1174              		.loc 1 319 26 discriminator 1 view .LVU325
 1175              	.LBE131:
 1176              	.LBB132:
 1177              	.LBB130:
  69:Src/include/SPI_Connection.h ****     }
 1178              		.loc 2 69 19 is_stmt 0 view .LVU326
 1179 014c 4FF47A73 		mov	r3, #1000
 1180              	.LVL76:
 1181              	.L40:
  69:Src/include/SPI_Connection.h ****     }
 1182              		.loc 2 69 19 view .LVU327
 1183              	.LBE130:
 1184              	.LBE132:
 1185              	.LBB133:
 320:Src/main.c    ****         __NOP();
 1186              		.loc 1 320 9 is_stmt 1 view .LVU328
 1187              		.syntax unified
ARM GAS  /tmp/ccSTtYB6.s 			page 32


 1188              	@ 320 "Src/main.c" 1
 1189 0150 00BF     		nop
 1190              	@ 0 "" 2
 319:Src/main.c    ****         __NOP();
 1191              		.loc 1 319 5 discriminator 3 view .LVU329
 1192              	.LVL77:
 319:Src/main.c    ****         __NOP();
 1193              		.loc 1 319 26 discriminator 1 view .LVU330
 1194              		.thumb
 1195              		.syntax unified
 1196 0152 013B     		subs	r3, r3, #1
 1197              	.LVL78:
 319:Src/main.c    ****         __NOP();
 1198              		.loc 1 319 26 is_stmt 0 discriminator 1 view .LVU331
 1199 0154 FCD1     		bne	.L40
 1200              	.LVL79:
 1201              	.L41:
 319:Src/main.c    ****         __NOP();
 1202              		.loc 1 319 26 discriminator 1 view .LVU332
 1203              	.LBE133:
 321:Src/main.c    ****     }
 322:Src/main.c    **** 
 323:Src/main.c    ****     Work1:
 1204              		.loc 1 323 5 is_stmt 1 view .LVU333
 324:Src/main.c    ****         screen.draw();
 1205              		.loc 1 324 9 view .LVU334
 1206              	.LBB134:
 1207              	.LBI134:
  31:Src/include/ScreenControl.h **** 
  32:Src/include/ScreenControl.h ****         //testing
  33:Src/include/ScreenControl.h ****         /*
  34:Src/include/ScreenControl.h ****         Label l1(8, 0, 0);
  35:Src/include/ScreenControl.h ****         Label l2(8, 0, 32);
  36:Src/include/ScreenControl.h ****         Label l3(8, 8, 0);
  37:Src/include/ScreenControl.h ****         Label l4(8, 8, 32);
  38:Src/include/ScreenControl.h **** 
  39:Src/include/ScreenControl.h ****         labels[0] = &l1;
  40:Src/include/ScreenControl.h ****         labels[1] = &l2;
  41:Src/include/ScreenControl.h ****         labels[2] = &l3;
  42:Src/include/ScreenControl.h ****         labels[3] = &l4;
  43:Src/include/ScreenControl.h ****         */
  44:Src/include/ScreenControl.h ****     }
  45:Src/include/ScreenControl.h ****     ~ScreenControl(){
  46:Src/include/ScreenControl.h ****         delete connection;
  47:Src/include/ScreenControl.h ****         //delete[] labels;
  48:Src/include/ScreenControl.h ****     }
  49:Src/include/ScreenControl.h **** 
  50:Src/include/ScreenControl.h ****     void addLabel(Font* font, const char* text, uint8_t len, uint8_t x, uint8_t y){
  51:Src/include/ScreenControl.h ****         //labels.emplace_back(Label(font, text, len, x, y));
  52:Src/include/ScreenControl.h ****     }
  53:Src/include/ScreenControl.h **** 
  54:Src/include/ScreenControl.h ****     void assembleFrame(){
  55:Src/include/ScreenControl.h ****         //testing
  56:Src/include/ScreenControl.h ****         for(uint8_t i = 0; i < labelNum; i++){
  57:Src/include/ScreenControl.h **** 
  58:Src/include/ScreenControl.h ****         }
  59:Src/include/ScreenControl.h ****     }
ARM GAS  /tmp/ccSTtYB6.s 			page 33


  60:Src/include/ScreenControl.h **** 
  61:Src/include/ScreenControl.h ****     void draw(){
 1208              		.loc 3 61 10 view .LVU335
 1209              	.LBB135:
  62:Src/include/ScreenControl.h ****         connection->SSD1322_write_C2D(0x15, 28, 91);    // set column address, start, end
 1210              		.loc 3 62 9 view .LVU336
 1211              		.loc 3 62 38 is_stmt 0 view .LVU337
 1212 0156 5B22     		movs	r2, #91
 1213 0158 1C21     		movs	r1, #28
 1214 015a 1520     		movs	r0, #21
 1215 015c FFF7FEFF 		bl	_ZN14SPI_Connection17SSD1322_write_C2DEhhh.isra.0
 1216              	.LVL80:
  63:Src/include/ScreenControl.h ****         connection->SSD1322_write_C2D(0x75, 0, 63);     // set row address, moved out of the loop (
 1217              		.loc 3 63 9 is_stmt 1 view .LVU338
 1218              		.loc 3 63 38 is_stmt 0 view .LVU339
 1219 0160 3F22     		movs	r2, #63
 1220 0162 0021     		movs	r1, #0
 1221 0164 7520     		movs	r0, #117
 1222 0166 FFF7FEFF 		bl	_ZN14SPI_Connection17SSD1322_write_C2DEhhh.isra.0
 1223              	.LVL81:
  64:Src/include/ScreenControl.h ****         connection->SSD1322_write_C(0x5C);              // ąŚą░ą┐ąĖčüčī ą▓ RAM
 1224              		.loc 3 64 9 is_stmt 1 view .LVU340
 1225              	.LBB136:
 1226              	.LBI136:
  68:Src/include/SPI_Connection.h ****         write_data(cmd);
 1227              		.loc 2 68 10 view .LVU341
 1228              	.LBB137:
  69:Src/include/SPI_Connection.h ****     }
 1229              		.loc 2 69 9 view .LVU342
  69:Src/include/SPI_Connection.h ****     }
 1230              		.loc 2 69 19 is_stmt 0 view .LVU343
 1231 016a 5C20     		movs	r0, #92
 1232 016c FFF7FEFF 		bl	_ZN14SPI_Connection10write_dataEt.isra.0
 1233              	.LVL82:
  69:Src/include/SPI_Connection.h ****     }
 1234              		.loc 2 69 19 view .LVU344
 1235              	.LBE137:
 1236              	.LBE136:
  65:Src/include/ScreenControl.h **** 
  66:Src/include/ScreenControl.h ****         /*
  67:Src/include/ScreenControl.h ****         //REMOVE------------------------------
  68:Src/include/ScreenControl.h ****         GPIOB->ODR |= GPIO_ODR_OD1; //LED3 ORANGE
  69:Src/include/ScreenControl.h ****         for(uint32_t i = 0; i < 100000; i++) {
  70:Src/include/ScreenControl.h ****             __NOP();
  71:Src/include/ScreenControl.h ****         }
  72:Src/include/ScreenControl.h **** 
  73:Src/include/ScreenControl.h ****         GPIOB->ODR &= ~GPIO_ODR_OD1; //ORANGE
  74:Src/include/ScreenControl.h ****         for(uint32_t i = 0; i < 100000; i++) {
  75:Src/include/ScreenControl.h ****             __NOP();
  76:Src/include/ScreenControl.h ****         }
  77:Src/include/ScreenControl.h **** 
  78:Src/include/ScreenControl.h ****         //REMOVE------------------------------
  79:Src/include/ScreenControl.h ****         */
  80:Src/include/ScreenControl.h **** 
  81:Src/include/ScreenControl.h ****         for(uint16_t i = 0; i < dataLen; i++){
 1237              		.loc 3 81 9 is_stmt 1 view .LVU345
 1238              		.loc 3 81 9 is_stmt 0 view .LVU346
ARM GAS  /tmp/ccSTtYB6.s 			page 34


 1239 0170 0DF11D05 		add	r5, sp, #29
 1240              	.LBB138:
 1241 0174 42F20104 		movw	r4, #8193
 1242              	.LVL83:
 1243              	.L42:
 1244              		.loc 3 81 31 is_stmt 1 discriminator 1 view .LVU347
 1245 0178 013C     		subs	r4, r4, #1
 1246 017a A4B2     		uxth	r4, r4
 1247 017c 002C     		cmp	r4, #0
 1248 017e EAD0     		beq	.L41
  82:Src/include/ScreenControl.h ****             connection->SSD1322_write_D(visualData[i]);
 1249              		.loc 3 82 13 view .LVU348
 1250              	.LVL84:
 1251              	.LBB139:
 1252              	.LBI139:
  64:Src/include/SPI_Connection.h ****         write_data(0x0100 | data);          //append data to 0x01
 1253              		.loc 2 64 10 view .LVU349
 1254              	.LBB140:
  65:Src/include/SPI_Connection.h ****     }
 1255              		.loc 2 65 9 view .LVU350
  65:Src/include/SPI_Connection.h ****     }
 1256              		.loc 2 65 27 is_stmt 0 view .LVU351
 1257 0180 15F8010F 		ldrb	r0, [r5, #1]!	@ zero_extendqisi2
 1258              	.LVL85:
  65:Src/include/SPI_Connection.h ****     }
 1259              		.loc 2 65 19 view .LVU352
 1260 0184 40F48070 		orr	r0, r0, #256
 1261 0188 FFF7FEFF 		bl	_ZN14SPI_Connection10write_dataEt.isra.0
 1262              	.LVL86:
  65:Src/include/SPI_Connection.h ****     }
 1263              		.loc 2 65 19 view .LVU353
 1264              	.LBE140:
 1265              	.LBE139:
  81:Src/include/ScreenControl.h ****             connection->SSD1322_write_D(visualData[i]);
 1266              		.loc 3 81 9 is_stmt 1 discriminator 3 view .LVU354
  81:Src/include/ScreenControl.h ****             connection->SSD1322_write_D(visualData[i]);
 1267              		.loc 3 81 9 is_stmt 0 discriminator 3 view .LVU355
 1268 018c F4E7     		b	.L42
 1269              	.L46:
 1270 018e 00BF     		.align	2
 1271              	.L45:
 1272 0190 00100240 		.word	1073876992
 1273 0194 00040048 		.word	1207960576
 1274              	.LBE138:
 1275              	.LBE135:
 1276              	.LBE134:
 1277              		.cfi_endproc
 1278              	.LFE184:
 1279              		.cantunwind
 1280              		.fnend
 1282              		.global	OLED_Data
 1283              		.section	.bss.OLED_Data,"aw",%nobits
 1284              		.align	1
 1287              	OLED_Data:
 1288 0000 00000000 		.space	8192
 1288      00000000 
 1288      00000000 
ARM GAS  /tmp/ccSTtYB6.s 			page 35


 1288      00000000 
 1288      00000000 
 1289              		.text
 1290              	.Letext0:
 1291              		.file 4 "/usr/arm-none-eabi/include/machine/_default_types.h"
 1292              		.file 5 "/usr/arm-none-eabi/include/sys/_stdint.h"
 1293              		.file 6 "./Src/Drivers/CMSIS/Device/ST/STM32G4xx/Include/stm32g474xx.h"
 1294              		.file 7 "Src/include/Font.h"
 1295              		.file 8 "Src/include/Label.h"
 1296              		.file 9 "Src/include/FONT_A.h"
ARM GAS  /tmp/ccSTtYB6.s 			page 36

