ARM GAS  /tmp/ccKGLILm.s 			page 1


   1              		.cpu cortex-m4
   2              		.arch armv7e-m
   3              		.fpu fpv4-sp-d16
   4              		.eabi_attribute 27, 1
   5              		.eabi_attribute 28, 1
   6              		.eabi_attribute 20, 1
   7              		.eabi_attribute 21, 1
   8              		.eabi_attribute 23, 3
   9              		.eabi_attribute 24, 1
  10              		.eabi_attribute 25, 1
  11              		.eabi_attribute 26, 1
  12              		.eabi_attribute 30, 4
  13              		.eabi_attribute 34, 1
  14              		.eabi_attribute 18, 4
  15              		.file	"main.c"
  16              		.text
  17              	.Ltext0:
  18              		.cfi_sections	.debug_frame
  19              		.file 1 "Src/main.c"
  20              		.section	.text._ZN5LabelD2Ev,"axG",%progbits,_ZN5LabelD5Ev,comdat
  21              		.align	1
  22              		.weak	_ZN5LabelD2Ev
  23              		.syntax unified
  24              		.thumb
  25              		.thumb_func
  27              	_ZN5LabelD2Ev:
  28              		.fnstart
  29              	.LVL0:
  30              	.LFB136:
  31              		.file 2 "Src/include/Label.h"
   1:Src/include/Label.h **** #ifndef LABEL_H
   2:Src/include/Label.h **** #define LABEL_H
   3:Src/include/Label.h **** 
   4:Src/include/Label.h **** #include "FONT_A.h"
   5:Src/include/Label.h **** 
   6:Src/include/Label.h **** class Label{    //separate into geometry and text obj later
   7:Src/include/Label.h **** private:
   8:Src/include/Label.h **** 
   9:Src/include/Label.h **** public:
  10:Src/include/Label.h ****     uint8_t* data = nullptr;
  11:Src/include/Label.h **** 
  12:Src/include/Label.h ****     uint8_t dataLen      = 0;
  13:Src/include/Label.h ****     uint8_t width        = 0;
  14:Src/include/Label.h ****     uint8_t height       = 0;
  15:Src/include/Label.h **** 
  16:Src/include/Label.h ****     uint8_t xPos = 0;
  17:Src/include/Label.h ****     uint8_t yPos = 0;
  18:Src/include/Label.h **** 
  19:Src/include/Label.h ****     Label(uint8_t* d, uint8_t dL, uint8_t w, uint8_t h, uint8_t x, uint8_t y){
  20:Src/include/Label.h ****         data = d;
  21:Src/include/Label.h **** 
  22:Src/include/Label.h ****         dataLen = dL;
  23:Src/include/Label.h **** 
  24:Src/include/Label.h ****         width   = w;
  25:Src/include/Label.h ****         height  = h;
  26:Src/include/Label.h **** 
  27:Src/include/Label.h ****         xPos    = x;
ARM GAS  /tmp/ccKGLILm.s 			page 2


  28:Src/include/Label.h ****         yPos    = y;
  29:Src/include/Label.h **** 
  30:Src/include/Label.h ****         setGlyph(tf::char_0, 3, 6, 1, 1);
  31:Src/include/Label.h ****         setGlyph(tf::char_0, 3, 6, 4, 1);
  32:Src/include/Label.h ****         setGlyph(tf::char_0, 3, 6, 7, 1);
  33:Src/include/Label.h ****         setGlyph(tf::char_0, 3, 6, 10, 1);
  34:Src/include/Label.h ****         setGlyph(tf::char_0, 3, 6, 13, 1);
  35:Src/include/Label.h **** 
  36:Src/include/Label.h ****     }
  37:Src/include/Label.h **** 
  38:Src/include/Label.h ****     ~Label(){}
  32              		.loc 2 38 5 view -0
  33              		.cfi_startproc
  34              		@ args = 0, pretend = 0, frame = 0
  35              		@ frame_needed = 0, uses_anonymous_args = 0
  36              		@ link register save eliminated.
  37              		.loc 2 38 14 is_stmt 0 view .LVU1
  38 0000 7047     		bx	lr
  39              		.cfi_endproc
  40              	.LFE136:
  41              		.cantunwind
  42              		.fnend
  44              		.weak	_ZN5LabelD1Ev
  45              		.thumb_set _ZN5LabelD1Ev,_ZN5LabelD2Ev
  46              		.section	.text._ZN14SPI_Connection10write_dataEt.isra.0,"ax",%progbits
  47              		.align	1
  48              		.syntax unified
  49              		.thumb
  50              		.thumb_func
  52              	_ZN14SPI_Connection10write_dataEt.isra.0:
  53              		.fnstart
  54              	.LVL1:
  55              	.LFB184:
  56              		.file 3 "Src/include/SPI_Connection.h"
   1:Src/include/SPI_Connection.h **** #ifndef SPI_CONNECTION_H
   2:Src/include/SPI_Connection.h **** #define SPI_CONNECTION_H
   3:Src/include/SPI_Connection.h **** 
   4:Src/include/SPI_Connection.h **** #include <stm32g474xx.h>
   5:Src/include/SPI_Connection.h **** 
   6:Src/include/SPI_Connection.h **** #ifndef CS_LOW
   7:Src/include/SPI_Connection.h **** #define		 CS_LOW 	GPIOB->BSRR = GPIO_BSRR_BR12;
   8:Src/include/SPI_Connection.h **** #endif
   9:Src/include/SPI_Connection.h **** 
  10:Src/include/SPI_Connection.h **** #ifndef CS_HIGH
  11:Src/include/SPI_Connection.h **** #define 	 CS_HIGH 	GPIOB->BSRR = GPIO_BSRR_BS12;
  12:Src/include/SPI_Connection.h **** #endif
  13:Src/include/SPI_Connection.h **** 
  14:Src/include/SPI_Connection.h **** class SPI_Connection{
  15:Src/include/SPI_Connection.h **** private:
  16:Src/include/SPI_Connection.h **** public:
  17:Src/include/SPI_Connection.h ****     SPI_Connection(){
  18:Src/include/SPI_Connection.h ****         RCC->AHB2ENR  |= RCC_AHB2ENR_GPIOBEN;   // –≤–Ї–ї—О—З–∞–µ–Љ —В–∞–Ї—В–Є—А–Њ–≤–∞–љ–Є–µ PortB
  19:Src/include/SPI_Connection.h **** 
  20:Src/include/SPI_Connection.h ****         GPIOB->MODER  &= ~(GPIO_MODER_MODE12   | GPIO_MODER_MODE13   | GPIO_MODER_MODE14   | GPIO_M
  21:Src/include/SPI_Connection.h ****         GPIOB->MODER  |=  (GPIO_MODER_MODE12_0 | GPIO_MODER_MODE13_1 | GPIO_MODER_MODE14_0 | GPIO_M
  22:Src/include/SPI_Connection.h ****         GPIOB->AFR[1] &= ~( GPIO_AFRH_AFSEL13   | GPIO_AFRH_AFSEL15 );                             
  23:Src/include/SPI_Connection.h ****         GPIOB->AFR[1] |=  ( GPIO_AFRH_AFSEL13_2 | GPIO_AFRH_AFSEL13_0 | GPIO_AFRH_AFSEL15_2 | GPIO_
ARM GAS  /tmp/ccKGLILm.s 			page 3


  24:Src/include/SPI_Connection.h **** 
  25:Src/include/SPI_Connection.h ****         GPIOB->BSRR |= GPIO_BSRR_BR14;          // —И–ї–µ–Љ —Б–±—А–Њ—Б –љ–∞ PB14
  26:Src/include/SPI_Connection.h **** 
  27:Src/include/SPI_Connection.h ****         RCC->APB1ENR1 |= RCC_APB1ENR1_SPI2EN;   // –≤–Ї–ї—О—З–∞–µ–Љ SPI2 –љ–∞ —В–∞–Ї—В–Є—А–Њ–≤–∞–љ–
  28:Src/include/SPI_Connection.h **** 
  29:Src/include/SPI_Connection.h ****         SPI2->CR1 |= SPI_CR1_MSTR | SPI_CR1_CPOL | SPI_CR1_CPHA | SPI_CR1_BR_0 | SPI_CR1_BR_1 | SPI
  30:Src/include/SPI_Connection.h ****         SPI2->CR2 |= SPI_CR2_DS_3;              // –і–ї–Є–љ–∞ —Д—А–µ–є–Љ–∞ 9-–±–Є—В
  31:Src/include/SPI_Connection.h ****         SPI2->CR2 &= ~(SPI_CR2_DS_0 | SPI_CR2_DS_1 | SPI_CR2_DS_2);
  32:Src/include/SPI_Connection.h **** 
  33:Src/include/SPI_Connection.h ****         CS_HIGH
  34:Src/include/SPI_Connection.h **** 
  35:Src/include/SPI_Connection.h ****         SPI2->CR1 |= SPI_CR1_SPE;               // –≤–Ї–ї—О—З–∞–µ–Љ SPI
  36:Src/include/SPI_Connection.h **** 
  37:Src/include/SPI_Connection.h ****         for(uint32_t timer=0;timer<500;timer++) {
  38:Src/include/SPI_Connection.h ****             __NOP();
  39:Src/include/SPI_Connection.h ****         }
  40:Src/include/SPI_Connection.h **** 
  41:Src/include/SPI_Connection.h ****         GPIOB->BSRR |= GPIO_BSRR_BS14;          // –Њ—В–Ї–ї—О—З–∞–µ–Љ —Б–±—А–Њ—Б
  42:Src/include/SPI_Connection.h ****     }
  43:Src/include/SPI_Connection.h **** 
  44:Src/include/SPI_Connection.h ****     ~SPI_Connection(){
  45:Src/include/SPI_Connection.h **** 
  46:Src/include/SPI_Connection.h ****     }
  47:Src/include/SPI_Connection.h **** 
  48:Src/include/SPI_Connection.h ****     uint16_t write_data(uint16_t data){
  57              		.loc 3 48 14 is_stmt 1 view -0
  58              		.cfi_startproc
  59              		@ args = 0, pretend = 0, frame = 0
  60              		@ frame_needed = 0, uses_anonymous_args = 0
  61              		@ link register save eliminated.
  49:Src/include/SPI_Connection.h ****         while(!(SPI2->SR & SPI_SR_TXE));    //–ґ–і—С–Љ –њ–Њ–Ї–∞ –Њ–њ—Г—Б—В–Њ—И–Є—В—Б—П Tx –±—Г—Д–µ—
  62              		.loc 3 49 9 view .LVU3
  63              		.loc 3 49 23 is_stmt 0 discriminator 1 view .LVU4
  64 0000 084B     		ldr	r3, .L9
  65              	.L3:
  66              		.loc 3 49 15 is_stmt 1 discriminator 1 view .LVU5
  67              		.loc 3 49 23 is_stmt 0 discriminator 1 view .LVU6
  68 0002 9A68     		ldr	r2, [r3, #8]
  69              		.loc 3 49 15 discriminator 1 view .LVU7
  70 0004 9207     		lsls	r2, r2, #30
  71 0006 FCD5     		bpl	.L3
  50:Src/include/SPI_Connection.h **** 
  51:Src/include/SPI_Connection.h ****         CS_LOW                              //–∞–Ї—В–Є–≤–Є—А—Г–µ–Љ Chip Select
  72              		.loc 3 51 9 is_stmt 1 view .LVU8
  73 0008 074A     		ldr	r2, .L9+4
  74 000a 4FF08051 		mov	r1, #268435456
  75 000e 9161     		str	r1, [r2, #24]
  52:Src/include/SPI_Connection.h **** 
  53:Src/include/SPI_Connection.h ****         SPI2->DR = data;                    //–Њ—В–њ—А–∞–≤–ї—П–µ–Љ –і–∞–љ–љ—Л–µ
  76              		.loc 3 53 9 view .LVU9
  77              		.loc 3 53 18 is_stmt 0 view .LVU10
  78 0010 D860     		str	r0, [r3, #12]
  54:Src/include/SPI_Connection.h **** 
  55:Src/include/SPI_Connection.h ****         while(!(SPI2->SR & SPI_SR_RXNE));   //–ґ–і—С–Љ –њ–Њ–Ї–∞ –њ—А–Є–і—С—В –Њ—В–≤–µ—В
  79              		.loc 3 55 9 is_stmt 1 view .LVU11
  80              	.L4:
  81              		.loc 3 55 15 discriminator 1 view .LVU12
ARM GAS  /tmp/ccKGLILm.s 			page 4


  82              		.loc 3 55 23 is_stmt 0 discriminator 1 view .LVU13
  83 0012 9968     		ldr	r1, [r3, #8]
  84              		.loc 3 55 15 discriminator 1 view .LVU14
  85 0014 C907     		lsls	r1, r1, #31
  86 0016 FCD5     		bpl	.L4
  56:Src/include/SPI_Connection.h **** 
  57:Src/include/SPI_Connection.h ****         data = SPI2->DR;                    //—Б—З–Є—В—Л–≤–∞–µ–Љ –њ–Њ–ї—Г—З–µ–љ–љ—Л–µ –і–∞–љ–љ—Л–µ
  87              		.loc 3 57 9 is_stmt 1 view .LVU15
  88              		.loc 3 57 22 is_stmt 0 view .LVU16
  89 0018 DB68     		ldr	r3, [r3, #12]
  90              	.LVL2:
  58:Src/include/SPI_Connection.h **** 
  59:Src/include/SPI_Connection.h ****         CS_HIGH                             //–і–µ–∞–Ї—В–Є–≤–Є—А—Г–µ–Љ Chip Select
  91              		.loc 3 59 9 is_stmt 1 view .LVU17
  92 001a 4FF48053 		mov	r3, #4096
  93 001e 9361     		str	r3, [r2, #24]
  60:Src/include/SPI_Connection.h **** 
  61:Src/include/SPI_Connection.h ****         return data;                        //–≤–Њ–Ј–≤—А–∞—Й–∞–µ–Љ —В–Њ, —З—В–Њ –њ—А–Њ—З–Є—В–∞–ї–Є
  94              		.loc 3 61 9 view .LVU18
  62:Src/include/SPI_Connection.h ****     }
  95              		.loc 3 62 5 is_stmt 0 view .LVU19
  96 0020 7047     		bx	lr
  97              	.L10:
  98 0022 00BF     		.align	2
  99              	.L9:
 100 0024 00380040 		.word	1073756160
 101 0028 00040048 		.word	1207960576
 102              		.cfi_endproc
 103              	.LFE184:
 104              		.cantunwind
 105              		.fnend
 107              		.section	.text._ZN14SPI_Connection16SSD1322_write_CDEhh.isra.0,"ax",%progbits
 108              		.align	1
 109              		.syntax unified
 110              		.thumb
 111              		.thumb_func
 113              	_ZN14SPI_Connection16SSD1322_write_CDEhh.isra.0:
 114              		.fnstart
 115              	.LVL3:
 116              	.LFB185:
  63:Src/include/SPI_Connection.h **** 
  64:Src/include/SPI_Connection.h ****     void SSD1322_write_D(uint8_t data){
  65:Src/include/SPI_Connection.h ****         write_data(0x0100 | data);          //append data to 0x01
  66:Src/include/SPI_Connection.h ****     }
  67:Src/include/SPI_Connection.h **** 
  68:Src/include/SPI_Connection.h ****     void SSD1322_write_C(uint8_t cmd){
  69:Src/include/SPI_Connection.h ****         write_data(cmd);
  70:Src/include/SPI_Connection.h ****     }
  71:Src/include/SPI_Connection.h **** 
  72:Src/include/SPI_Connection.h ****     void SSD1322_write_CD(uint8_t cmd, uint8_t D0) {
 117              		.loc 3 72 10 is_stmt 1 view -0
 118              		.cfi_startproc
 119              		@ args = 0, pretend = 0, frame = 0
 120              		@ frame_needed = 0, uses_anonymous_args = 0
  73:Src/include/SPI_Connection.h **** 
  74:Src/include/SPI_Connection.h ****         SSD1322_write_C(cmd);
 121              		.loc 3 74 9 view .LVU21
ARM GAS  /tmp/ccKGLILm.s 			page 5


 122              	.LBB39:
 123              	.LBI39:
  68:Src/include/SPI_Connection.h ****         write_data(cmd);
 124              		.loc 3 68 10 view .LVU22
 125              	.LBB40:
  69:Src/include/SPI_Connection.h ****     }
 126              		.loc 3 69 9 view .LVU23
 127              	.LBE40:
 128              	.LBE39:
  72:Src/include/SPI_Connection.h **** 
 129              		.loc 3 72 10 is_stmt 0 view .LVU24
 130 0000 10B5     		push	{r4, lr}
 131              	.LCFI0:
 132              		.cfi_def_cfa_offset 8
 133              		.cfi_offset 4, -8
 134              		.cfi_offset 14, -4
  72:Src/include/SPI_Connection.h **** 
 135              		.loc 3 72 10 view .LVU25
 136 0002 0C46     		mov	r4, r1
 137              	.LBB42:
 138              	.LBB41:
  69:Src/include/SPI_Connection.h ****     }
 139              		.loc 3 69 19 view .LVU26
 140 0004 FFF7FEFF 		bl	_ZN14SPI_Connection10write_dataEt.isra.0
 141              	.LVL4:
  69:Src/include/SPI_Connection.h ****     }
 142              		.loc 3 69 19 view .LVU27
 143              	.LBE41:
 144              	.LBE42:
  75:Src/include/SPI_Connection.h ****         SSD1322_write_D(D0);
 145              		.loc 3 75 9 is_stmt 1 view .LVU28
 146              	.LBB43:
 147              	.LBI43:
  64:Src/include/SPI_Connection.h ****         write_data(0x0100 | data);          //append data to 0x01
 148              		.loc 3 64 10 view .LVU29
 149              	.LBB44:
  65:Src/include/SPI_Connection.h ****     }
 150              		.loc 3 65 9 view .LVU30
  65:Src/include/SPI_Connection.h ****     }
 151              		.loc 3 65 19 is_stmt 0 view .LVU31
 152 0008 44F48070 		orr	r0, r4, #256
 153              	.LVL5:
  65:Src/include/SPI_Connection.h ****     }
 154              		.loc 3 65 19 view .LVU32
 155              	.LBE44:
 156              	.LBE43:
  76:Src/include/SPI_Connection.h ****     }
 157              		.loc 3 76 5 view .LVU33
 158 000c BDE81040 		pop	{r4, lr}
 159              	.LCFI1:
 160              		.cfi_restore 14
 161              		.cfi_restore 4
 162              		.cfi_def_cfa_offset 0
 163              	.LVL6:
 164              	.LBB46:
 165              	.LBB45:
  65:Src/include/SPI_Connection.h ****     }
ARM GAS  /tmp/ccKGLILm.s 			page 6


 166              		.loc 3 65 19 view .LVU34
 167 0010 FFF7FEBF 		b	_ZN14SPI_Connection10write_dataEt.isra.0
 168              	.LVL7:
 169              	.LBE45:
 170              	.LBE46:
 171              		.cfi_endproc
 172              	.LFE185:
 173              		.cantunwind
 174              		.fnend
 176              		.section	.text._ZN14SPI_Connection17SSD1322_write_C2DEhhh.isra.0,"ax",%progbits
 177              		.align	1
 178              		.syntax unified
 179              		.thumb
 180              		.thumb_func
 182              	_ZN14SPI_Connection17SSD1322_write_C2DEhhh.isra.0:
 183              		.fnstart
 184              	.LVL8:
 185              	.LFB187:
  77:Src/include/SPI_Connection.h **** 
  78:Src/include/SPI_Connection.h ****     void SSD1322_write_C2D(uint8_t cmd, uint8_t D0, uint8_t D1) {
 186              		.loc 3 78 10 is_stmt 1 view -0
 187              		.cfi_startproc
 188              		@ args = 0, pretend = 0, frame = 0
 189              		@ frame_needed = 0, uses_anonymous_args = 0
  79:Src/include/SPI_Connection.h **** 
  80:Src/include/SPI_Connection.h ****         SSD1322_write_C(cmd);
 190              		.loc 3 80 9 view .LVU36
 191              	.LBB55:
 192              	.LBI55:
  68:Src/include/SPI_Connection.h ****         write_data(cmd);
 193              		.loc 3 68 10 view .LVU37
 194              	.LBB56:
  69:Src/include/SPI_Connection.h ****     }
 195              		.loc 3 69 9 view .LVU38
 196              	.LBE56:
 197              	.LBE55:
  78:Src/include/SPI_Connection.h **** 
 198              		.loc 3 78 10 is_stmt 0 view .LVU39
 199 0000 38B5     		push	{r3, r4, r5, lr}
 200              	.LCFI2:
 201              		.cfi_def_cfa_offset 16
 202              		.cfi_offset 3, -16
 203              		.cfi_offset 4, -12
 204              		.cfi_offset 5, -8
 205              		.cfi_offset 14, -4
  78:Src/include/SPI_Connection.h **** 
 206              		.loc 3 78 10 view .LVU40
 207 0002 0D46     		mov	r5, r1
 208 0004 1446     		mov	r4, r2
 209              	.LBB58:
 210              	.LBB57:
  69:Src/include/SPI_Connection.h ****     }
 211              		.loc 3 69 19 view .LVU41
 212 0006 FFF7FEFF 		bl	_ZN14SPI_Connection10write_dataEt.isra.0
 213              	.LVL9:
  69:Src/include/SPI_Connection.h ****     }
 214              		.loc 3 69 19 view .LVU42
ARM GAS  /tmp/ccKGLILm.s 			page 7


 215              	.LBE57:
 216              	.LBE58:
  81:Src/include/SPI_Connection.h ****         SSD1322_write_D(D0);
 217              		.loc 3 81 9 is_stmt 1 view .LVU43
 218              	.LBB59:
 219              	.LBI59:
  64:Src/include/SPI_Connection.h ****         write_data(0x0100 | data);          //append data to 0x01
 220              		.loc 3 64 10 view .LVU44
 221              	.LBB60:
  65:Src/include/SPI_Connection.h ****     }
 222              		.loc 3 65 9 view .LVU45
  65:Src/include/SPI_Connection.h ****     }
 223              		.loc 3 65 19 is_stmt 0 view .LVU46
 224 000a 45F48070 		orr	r0, r5, #256
 225              	.LVL10:
  65:Src/include/SPI_Connection.h ****     }
 226              		.loc 3 65 19 view .LVU47
 227 000e FFF7FEFF 		bl	_ZN14SPI_Connection10write_dataEt.isra.0
 228              	.LVL11:
  65:Src/include/SPI_Connection.h ****     }
 229              		.loc 3 65 19 view .LVU48
 230              	.LBE60:
 231              	.LBE59:
  82:Src/include/SPI_Connection.h ****         SSD1322_write_D(D1);
 232              		.loc 3 82 9 is_stmt 1 view .LVU49
 233              	.LBB61:
 234              	.LBI61:
  64:Src/include/SPI_Connection.h ****         write_data(0x0100 | data);          //append data to 0x01
 235              		.loc 3 64 10 view .LVU50
 236              	.LBB62:
  65:Src/include/SPI_Connection.h ****     }
 237              		.loc 3 65 9 view .LVU51
  65:Src/include/SPI_Connection.h ****     }
 238              		.loc 3 65 19 is_stmt 0 view .LVU52
 239 0012 44F48070 		orr	r0, r4, #256
 240              	.LBE62:
 241              	.LBE61:
  83:Src/include/SPI_Connection.h ****     }
 242              		.loc 3 83 5 view .LVU53
 243 0016 BDE83840 		pop	{r3, r4, r5, lr}
 244              	.LCFI3:
 245              		.cfi_restore 14
 246              		.cfi_restore 5
 247              		.cfi_restore 4
 248              		.cfi_restore 3
 249              		.cfi_def_cfa_offset 0
 250              	.LVL12:
 251              	.LBB64:
 252              	.LBB63:
  65:Src/include/SPI_Connection.h ****     }
 253              		.loc 3 65 19 view .LVU54
 254 001a FFF7FEBF 		b	_ZN14SPI_Connection10write_dataEt.isra.0
 255              	.LVL13:
 256              	.LBE63:
 257              	.LBE64:
 258              		.cfi_endproc
 259              	.LFE187:
ARM GAS  /tmp/ccKGLILm.s 			page 8


 260              		.cantunwind
 261              		.fnend
 263              		.section	.text._ZN5Label8setGlyphEPKhhhhh,"axG",%progbits,_ZN5Label8setGlyphEPKhhhhh,comdat
 264              		.align	1
 265              		.weak	_ZN5Label8setGlyphEPKhhhhh
 266              		.syntax unified
 267              		.thumb
 268              		.thumb_func
 270              	_ZN5Label8setGlyphEPKhhhhh:
 271              		.fnstart
 272              	.LVL14:
 273              	.LFB139:
  39:Src/include/Label.h **** 
  40:Src/include/Label.h ****     uint8_t* getData(){
  41:Src/include/Label.h ****         return data;
  42:Src/include/Label.h ****     }
  43:Src/include/Label.h **** 
  44:Src/include/Label.h ****     void setGlyph(const uint8_t* g, uint8_t w, uint8_t h, uint8_t x, uint8_t y){
 274              		.loc 2 44 10 is_stmt 1 view -0
 275              		.cfi_startproc
 276              		@ args = 8, pretend = 0, frame = 0
 277              		@ frame_needed = 0, uses_anonymous_args = 0
  45:Src/include/Label.h ****         for(uint8_t i = 0; i < h; i++){
 278              		.loc 2 45 9 view .LVU56
  44:Src/include/Label.h ****         for(uint8_t i = 0; i < h; i++){
 279              		.loc 2 44 10 is_stmt 0 view .LVU57
 280 0000 2DE9F047 		push	{r4, r5, r6, r7, r8, r9, r10, lr}
 281              	.LCFI4:
 282              		.cfi_def_cfa_offset 32
 283              		.cfi_offset 4, -32
 284              		.cfi_offset 5, -28
 285              		.cfi_offset 6, -24
 286              		.cfi_offset 7, -20
 287              		.cfi_offset 8, -16
 288              		.cfi_offset 9, -12
 289              		.cfi_offset 10, -8
 290              		.cfi_offset 14, -4
  44:Src/include/Label.h ****         for(uint8_t i = 0; i < h; i++){
 291              		.loc 2 44 10 view .LVU58
 292 0004 9DF82090 		ldrb	r9, [sp, #32]	@ zero_extendqisi2
 293 0008 9DF82480 		ldrb	r8, [sp, #36]	@ zero_extendqisi2
 294              	.LBB65:
 295              		.loc 2 45 21 view .LVU59
 296 000c 0024     		movs	r4, #0
 297              	.LVL15:
 298              	.L14:
 299              		.loc 2 45 30 is_stmt 1 discriminator 1 view .LVU60
 300 000e 9C42     		cmp	r4, r3
 301 0010 16D2     		bcs	.L13
 302 0012 04FB021C 		mla	ip, r4, r2, r1
 303              	.LBB66:
  46:Src/include/Label.h ****             for(uint8_t j = 0; j < w; j++){
  47:Src/include/Label.h ****                 data[x + width/2*(i + y) + j] = g[i*w + j];
 304              		.loc 2 47 52 is_stmt 0 view .LVU61
 305 0016 0026     		movs	r6, #0
 306              		.loc 2 47 37 view .LVU62
 307 0018 08EB040E 		add	lr, r8, r4
ARM GAS  /tmp/ccKGLILm.s 			page 9


 308 001c 0AE0     		b	.L17
 309              	.LVL16:
 310              	.L15:
 311              		.loc 2 47 17 is_stmt 1 view .LVU63
 312              		.loc 2 47 31 is_stmt 0 view .LVU64
 313 001e 4579     		ldrb	r5, [r0, #5]	@ zero_extendqisi2
 314              		.loc 2 47 47 view .LVU65
 315 0020 0768     		ldr	r7, [r0]
 316              		.loc 2 47 58 view .LVU66
 317 0022 1CF801AB 		ldrb	r10, [ip], #1	@ zero_extendqisi2
 318              		.loc 2 47 31 view .LVU67
 319 0026 6D08     		lsrs	r5, r5, #1
 320              		.loc 2 47 47 view .LVU68
 321 0028 3744     		add	r7, r7, r6
 322 002a 0EFB0595 		mla	r5, lr, r5, r9
 323 002e 0136     		adds	r6, r6, #1
 324              	.LVL17:
 325              		.loc 2 47 47 view .LVU69
 326 0030 05F807A0 		strb	r10, [r5, r7]
  46:Src/include/Label.h ****             for(uint8_t j = 0; j < w; j++){
 327              		.loc 2 46 13 is_stmt 1 discriminator 3 view .LVU70
 328              	.LVL18:
 329              	.L17:
  46:Src/include/Label.h ****             for(uint8_t j = 0; j < w; j++){
 330              		.loc 2 46 34 discriminator 1 view .LVU71
 331 0034 F5B2     		uxtb	r5, r6
 332 0036 AA42     		cmp	r2, r5
 333 0038 F1D8     		bhi	.L15
 334              	.LBE66:
  45:Src/include/Label.h ****             for(uint8_t j = 0; j < w; j++){
 335              		.loc 2 45 9 discriminator 2 view .LVU72
 336 003a 0134     		adds	r4, r4, #1
 337              	.LVL19:
  45:Src/include/Label.h ****             for(uint8_t j = 0; j < w; j++){
 338              		.loc 2 45 9 is_stmt 0 discriminator 2 view .LVU73
 339 003c E4B2     		uxtb	r4, r4
 340              	.LVL20:
  45:Src/include/Label.h ****             for(uint8_t j = 0; j < w; j++){
 341              		.loc 2 45 9 discriminator 2 view .LVU74
 342 003e E6E7     		b	.L14
 343              	.LVL21:
 344              	.L13:
  45:Src/include/Label.h ****             for(uint8_t j = 0; j < w; j++){
 345              		.loc 2 45 9 discriminator 2 view .LVU75
 346              	.LBE65:
  48:Src/include/Label.h ****             }
  49:Src/include/Label.h ****         }
  50:Src/include/Label.h ****     }
 347              		.loc 2 50 5 view .LVU76
 348 0040 BDE8F087 		pop	{r4, r5, r6, r7, r8, r9, r10, pc}
 349              		.loc 2 50 5 view .LVU77
 350              		.cfi_endproc
 351              	.LFE139:
 352              		.cantunwind
 353              		.fnend
 355              		.section	.text._ZN5LabelC2EPhhhhhh,"axG",%progbits,_ZN5LabelC5EPhhhhhh,comdat
 356              		.align	1
ARM GAS  /tmp/ccKGLILm.s 			page 10


 357              		.weak	_ZN5LabelC2EPhhhhhh
 358              		.syntax unified
 359              		.thumb
 360              		.thumb_func
 362              	_ZN5LabelC2EPhhhhhh:
 363              		.fnstart
 364              	.LVL22:
 365              	.LFB133:
  19:Src/include/Label.h ****         data = d;
 366              		.loc 2 19 5 is_stmt 1 view -0
 367              		.cfi_startproc
 368              		@ args = 12, pretend = 0, frame = 0
 369              		@ frame_needed = 0, uses_anonymous_args = 0
 370              	.LBB67:
  20:Src/include/Label.h **** 
 371              		.loc 2 20 9 view .LVU79
 372              	.LBE67:
  19:Src/include/Label.h ****         data = d;
 373              		.loc 2 19 5 is_stmt 0 view .LVU80
 374 0000 73B5     		push	{r0, r1, r4, r5, r6, lr}
 375              	.LCFI5:
 376              		.cfi_def_cfa_offset 24
 377              		.cfi_offset 4, -16
 378              		.cfi_offset 5, -12
 379              		.cfi_offset 6, -8
 380              		.cfi_offset 14, -4
 381              	.LBB68:
  24:Src/include/Label.h ****         height  = h;
 382              		.loc 2 24 17 view .LVU81
 383 0002 4371     		strb	r3, [r0, #5]
  25:Src/include/Label.h **** 
 384              		.loc 2 25 17 view .LVU82
 385 0004 9DF81830 		ldrb	r3, [sp, #24]	@ zero_extendqisi2
 386              	.LVL23:
  30:Src/include/Label.h ****         setGlyph(tf::char_0, 3, 6, 4, 1);
 387              		.loc 2 30 17 view .LVU83
 388 0008 1C4E     		ldr	r6, .L19
  25:Src/include/Label.h **** 
 389              		.loc 2 25 17 view .LVU84
 390 000a 8371     		strb	r3, [r0, #6]
  27:Src/include/Label.h ****         yPos    = y;
 391              		.loc 2 27 17 view .LVU85
 392 000c 9DF81C30 		ldrb	r3, [sp, #28]	@ zero_extendqisi2
 393 0010 C371     		strb	r3, [r0, #7]
  30:Src/include/Label.h ****         setGlyph(tf::char_0, 3, 6, 4, 1);
 394              		.loc 2 30 17 view .LVU86
 395 0012 0125     		movs	r5, #1
  28:Src/include/Label.h **** 
 396              		.loc 2 28 17 view .LVU87
 397 0014 9DF82030 		ldrb	r3, [sp, #32]	@ zero_extendqisi2
  20:Src/include/Label.h **** 
 398              		.loc 2 20 14 view .LVU88
 399 0018 0160     		str	r1, [r0]
  22:Src/include/Label.h **** 
 400              		.loc 2 22 9 is_stmt 1 view .LVU89
  22:Src/include/Label.h **** 
 401              		.loc 2 22 17 is_stmt 0 view .LVU90
ARM GAS  /tmp/ccKGLILm.s 			page 11


 402 001a 0271     		strb	r2, [r0, #4]
  24:Src/include/Label.h ****         height  = h;
 403              		.loc 2 24 9 is_stmt 1 view .LVU91
  25:Src/include/Label.h **** 
 404              		.loc 2 25 9 view .LVU92
  27:Src/include/Label.h ****         yPos    = y;
 405              		.loc 2 27 9 view .LVU93
  28:Src/include/Label.h **** 
 406              		.loc 2 28 9 view .LVU94
  28:Src/include/Label.h **** 
 407              		.loc 2 28 17 is_stmt 0 view .LVU95
 408 001c 0372     		strb	r3, [r0, #8]
  30:Src/include/Label.h ****         setGlyph(tf::char_0, 3, 6, 4, 1);
 409              		.loc 2 30 9 is_stmt 1 view .LVU96
  30:Src/include/Label.h ****         setGlyph(tf::char_0, 3, 6, 4, 1);
 410              		.loc 2 30 17 is_stmt 0 view .LVU97
 411 001e 3146     		mov	r1, r6
 412              	.LVL24:
  30:Src/include/Label.h ****         setGlyph(tf::char_0, 3, 6, 4, 1);
 413              		.loc 2 30 17 view .LVU98
 414 0020 CDE90055 		strd	r5, r5, [sp]
 415              	.LVL25:
  30:Src/include/Label.h ****         setGlyph(tf::char_0, 3, 6, 4, 1);
 416              		.loc 2 30 17 view .LVU99
 417 0024 0623     		movs	r3, #6
 418 0026 0322     		movs	r2, #3
 419              	.LVL26:
  30:Src/include/Label.h ****         setGlyph(tf::char_0, 3, 6, 4, 1);
 420              		.loc 2 30 17 view .LVU100
 421              	.LBE68:
  19:Src/include/Label.h ****         data = d;
 422              		.loc 2 19 5 view .LVU101
 423 0028 0446     		mov	r4, r0
 424              	.LBB69:
  30:Src/include/Label.h ****         setGlyph(tf::char_0, 3, 6, 4, 1);
 425              		.loc 2 30 17 view .LVU102
 426 002a FFF7FEFF 		bl	_ZN5Label8setGlyphEPKhhhhh
 427              	.LVL27:
  31:Src/include/Label.h ****         setGlyph(tf::char_0, 3, 6, 7, 1);
 428              		.loc 2 31 9 is_stmt 1 view .LVU103
  31:Src/include/Label.h ****         setGlyph(tf::char_0, 3, 6, 7, 1);
 429              		.loc 2 31 17 is_stmt 0 view .LVU104
 430 002e 0423     		movs	r3, #4
 431 0030 0093     		str	r3, [sp]
 432 0032 3146     		mov	r1, r6
 433 0034 2046     		mov	r0, r4
 434 0036 0195     		str	r5, [sp, #4]
 435 0038 0623     		movs	r3, #6
 436 003a 0322     		movs	r2, #3
 437 003c FFF7FEFF 		bl	_ZN5Label8setGlyphEPKhhhhh
 438              	.LVL28:
  32:Src/include/Label.h ****         setGlyph(tf::char_0, 3, 6, 10, 1);
 439              		.loc 2 32 9 is_stmt 1 view .LVU105
  32:Src/include/Label.h ****         setGlyph(tf::char_0, 3, 6, 10, 1);
 440              		.loc 2 32 17 is_stmt 0 view .LVU106
 441 0040 0723     		movs	r3, #7
 442 0042 0093     		str	r3, [sp]
ARM GAS  /tmp/ccKGLILm.s 			page 12


 443 0044 3146     		mov	r1, r6
 444 0046 2046     		mov	r0, r4
 445 0048 0195     		str	r5, [sp, #4]
 446 004a 0623     		movs	r3, #6
 447 004c 0322     		movs	r2, #3
 448 004e FFF7FEFF 		bl	_ZN5Label8setGlyphEPKhhhhh
 449              	.LVL29:
  33:Src/include/Label.h ****         setGlyph(tf::char_0, 3, 6, 13, 1);
 450              		.loc 2 33 9 is_stmt 1 view .LVU107
  33:Src/include/Label.h ****         setGlyph(tf::char_0, 3, 6, 13, 1);
 451              		.loc 2 33 17 is_stmt 0 view .LVU108
 452 0052 0A23     		movs	r3, #10
 453 0054 0093     		str	r3, [sp]
 454 0056 3146     		mov	r1, r6
 455 0058 2046     		mov	r0, r4
 456 005a 0195     		str	r5, [sp, #4]
 457 005c 0623     		movs	r3, #6
 458 005e 0322     		movs	r2, #3
 459 0060 FFF7FEFF 		bl	_ZN5Label8setGlyphEPKhhhhh
 460              	.LVL30:
  34:Src/include/Label.h **** 
 461              		.loc 2 34 9 is_stmt 1 view .LVU109
  34:Src/include/Label.h **** 
 462              		.loc 2 34 17 is_stmt 0 view .LVU110
 463 0064 0D23     		movs	r3, #13
 464 0066 0093     		str	r3, [sp]
 465 0068 2046     		mov	r0, r4
 466 006a 0195     		str	r5, [sp, #4]
 467 006c 0623     		movs	r3, #6
 468 006e 0322     		movs	r2, #3
 469 0070 3146     		mov	r1, r6
 470 0072 FFF7FEFF 		bl	_ZN5Label8setGlyphEPKhhhhh
 471              	.LVL31:
 472              	.LBE69:
  36:Src/include/Label.h **** 
 473              		.loc 2 36 5 view .LVU111
 474 0076 2046     		mov	r0, r4
 475 0078 02B0     		add	sp, sp, #8
 476              	.LCFI6:
 477              		.cfi_def_cfa_offset 16
 478              		@ sp needed
 479 007a 70BD     		pop	{r4, r5, r6, pc}
 480              	.LVL32:
 481              	.L20:
  36:Src/include/Label.h **** 
 482              		.loc 2 36 5 view .LVU112
 483              		.align	2
 484              	.L19:
 485 007c 00000000 		.word	_ZN2tfL6char_0E
 486              		.cfi_endproc
 487              	.LFE133:
 488              		.cantunwind
 489              		.fnend
 491              		.weak	_ZN5LabelC1EPhhhhhh
 492              		.thumb_set _ZN5LabelC1EPhhhhhh,_ZN5LabelC2EPhhhhhh
 493              		.section	.text._ZN14SPI_ConnectionC2Ev,"axG",%progbits,_ZN14SPI_ConnectionC5Ev,comdat
 494              		.align	1
ARM GAS  /tmp/ccKGLILm.s 			page 13


 495              		.weak	_ZN14SPI_ConnectionC2Ev
 496              		.syntax unified
 497              		.thumb
 498              		.thumb_func
 500              	_ZN14SPI_ConnectionC2Ev:
 501              		.fnstart
 502              	.LVL33:
 503              	.LFB142:
  17:Src/include/SPI_Connection.h ****         RCC->AHB2ENR  |= RCC_AHB2ENR_GPIOBEN;   // –≤–Ї–ї—О—З–∞–µ–Љ —В–∞–Ї—В–Є—А–Њ–≤–∞–љ–Є–µ PortB
 504              		.loc 3 17 5 is_stmt 1 view -0
 505              		.cfi_startproc
 506              		@ args = 0, pretend = 0, frame = 0
 507              		@ frame_needed = 0, uses_anonymous_args = 0
 508              		@ link register save eliminated.
 509              	.LBB70:
  18:Src/include/SPI_Connection.h **** 
 510              		.loc 3 18 9 view .LVU114
  18:Src/include/SPI_Connection.h **** 
 511              		.loc 3 18 14 is_stmt 0 view .LVU115
 512 0000 2049     		ldr	r1, .L24
 513 0002 CB6C     		ldr	r3, [r1, #76]
  18:Src/include/SPI_Connection.h **** 
 514              		.loc 3 18 23 view .LVU116
 515 0004 43F00203 		orr	r3, r3, #2
 516 0008 CB64     		str	r3, [r1, #76]
  20:Src/include/SPI_Connection.h ****         GPIOB->MODER  |=  (GPIO_MODER_MODE12_0 | GPIO_MODER_MODE13_1 | GPIO_MODER_MODE14_0 | GPIO_M
 517              		.loc 3 20 9 is_stmt 1 view .LVU117
  20:Src/include/SPI_Connection.h ****         GPIOB->MODER  |=  (GPIO_MODER_MODE12_0 | GPIO_MODER_MODE13_1 | GPIO_MODER_MODE14_0 | GPIO_M
 518              		.loc 3 20 16 is_stmt 0 view .LVU118
 519 000a 1F4B     		ldr	r3, .L24+4
 520 000c 1A68     		ldr	r2, [r3]
  20:Src/include/SPI_Connection.h ****         GPIOB->MODER  |=  (GPIO_MODER_MODE12_0 | GPIO_MODER_MODE13_1 | GPIO_MODER_MODE14_0 | GPIO_M
 521              		.loc 3 20 23 view .LVU119
 522 000e 22F07F42 		bic	r2, r2, #-16777216
 523 0012 1A60     		str	r2, [r3]
  21:Src/include/SPI_Connection.h ****         GPIOB->AFR[1] &= ~( GPIO_AFRH_AFSEL13   | GPIO_AFRH_AFSEL15 );                             
 524              		.loc 3 21 9 is_stmt 1 view .LVU120
  21:Src/include/SPI_Connection.h ****         GPIOB->AFR[1] &= ~( GPIO_AFRH_AFSEL13   | GPIO_AFRH_AFSEL15 );                             
 525              		.loc 3 21 16 is_stmt 0 view .LVU121
 526 0014 1A68     		ldr	r2, [r3]
  21:Src/include/SPI_Connection.h ****         GPIOB->AFR[1] &= ~( GPIO_AFRH_AFSEL13   | GPIO_AFRH_AFSEL15 );                             
 527              		.loc 3 21 23 view .LVU122
 528 0016 42F01942 		orr	r2, r2, #-1728053248
 529 001a 1A60     		str	r2, [r3]
  22:Src/include/SPI_Connection.h ****         GPIOB->AFR[1] |=  ( GPIO_AFRH_AFSEL13_2 | GPIO_AFRH_AFSEL13_0 | GPIO_AFRH_AFSEL15_2 | GPIO_
 530              		.loc 3 22 9 is_stmt 1 view .LVU123
  22:Src/include/SPI_Connection.h ****         GPIOB->AFR[1] |=  ( GPIO_AFRH_AFSEL13_2 | GPIO_AFRH_AFSEL13_0 | GPIO_AFRH_AFSEL15_2 | GPIO_
 531              		.loc 3 22 21 is_stmt 0 view .LVU124
 532 001c 5A6A     		ldr	r2, [r3, #36]
  22:Src/include/SPI_Connection.h ****         GPIOB->AFR[1] |=  ( GPIO_AFRH_AFSEL13_2 | GPIO_AFRH_AFSEL13_0 | GPIO_AFRH_AFSEL15_2 | GPIO_
 533              		.loc 3 22 23 view .LVU125
 534 001e 22F07042 		bic	r2, r2, #-268435456
 535 0022 22F47002 		bic	r2, r2, #15728640
 536 0026 5A62     		str	r2, [r3, #36]
  23:Src/include/SPI_Connection.h **** 
 537              		.loc 3 23 9 is_stmt 1 view .LVU126
  23:Src/include/SPI_Connection.h **** 
ARM GAS  /tmp/ccKGLILm.s 			page 14


 538              		.loc 3 23 21 is_stmt 0 view .LVU127
 539 0028 5A6A     		ldr	r2, [r3, #36]
  23:Src/include/SPI_Connection.h **** 
 540              		.loc 3 23 23 view .LVU128
 541 002a 42F0A042 		orr	r2, r2, #1342177280
 542 002e 42F4A002 		orr	r2, r2, #5242880
 543 0032 5A62     		str	r2, [r3, #36]
  25:Src/include/SPI_Connection.h **** 
 544              		.loc 3 25 9 is_stmt 1 view .LVU129
  25:Src/include/SPI_Connection.h **** 
 545              		.loc 3 25 16 is_stmt 0 view .LVU130
 546 0034 9A69     		ldr	r2, [r3, #24]
  25:Src/include/SPI_Connection.h **** 
 547              		.loc 3 25 21 view .LVU131
 548 0036 42F08042 		orr	r2, r2, #1073741824
 549 003a 9A61     		str	r2, [r3, #24]
  27:Src/include/SPI_Connection.h **** 
 550              		.loc 3 27 9 is_stmt 1 view .LVU132
  27:Src/include/SPI_Connection.h **** 
 551              		.loc 3 27 14 is_stmt 0 view .LVU133
 552 003c 8A6D     		ldr	r2, [r1, #88]
  27:Src/include/SPI_Connection.h **** 
 553              		.loc 3 27 23 view .LVU134
 554 003e 42F48042 		orr	r2, r2, #16384
 555 0042 8A65     		str	r2, [r1, #88]
  29:Src/include/SPI_Connection.h ****         SPI2->CR2 |= SPI_CR2_DS_3;              // –і–ї–Є–љ–∞ —Д—А–µ–є–Љ–∞ 9-–±–Є—В
 556              		.loc 3 29 9 is_stmt 1 view .LVU135
  29:Src/include/SPI_Connection.h ****         SPI2->CR2 |= SPI_CR2_DS_3;              // –і–ї–Є–љ–∞ —Д—А–µ–є–Љ–∞ 9-–±–Є—В
 557              		.loc 3 29 15 is_stmt 0 view .LVU136
 558 0044 114A     		ldr	r2, .L24+8
 559 0046 1168     		ldr	r1, [r2]
  29:Src/include/SPI_Connection.h ****         SPI2->CR2 |= SPI_CR2_DS_3;              // –і–ї–Є–љ–∞ —Д—А–µ–є–Љ–∞ 9-–±–Є—В
 560              		.loc 3 29 19 view .LVU137
 561 0048 41F44771 		orr	r1, r1, #796
 562 004c 41F00301 		orr	r1, r1, #3
 563 0050 1160     		str	r1, [r2]
  30:Src/include/SPI_Connection.h ****         SPI2->CR2 &= ~(SPI_CR2_DS_0 | SPI_CR2_DS_1 | SPI_CR2_DS_2);
 564              		.loc 3 30 9 is_stmt 1 view .LVU138
  30:Src/include/SPI_Connection.h ****         SPI2->CR2 &= ~(SPI_CR2_DS_0 | SPI_CR2_DS_1 | SPI_CR2_DS_2);
 565              		.loc 3 30 15 is_stmt 0 view .LVU139
 566 0052 5168     		ldr	r1, [r2, #4]
  30:Src/include/SPI_Connection.h ****         SPI2->CR2 &= ~(SPI_CR2_DS_0 | SPI_CR2_DS_1 | SPI_CR2_DS_2);
 567              		.loc 3 30 19 view .LVU140
 568 0054 41F40061 		orr	r1, r1, #2048
 569 0058 5160     		str	r1, [r2, #4]
  31:Src/include/SPI_Connection.h **** 
 570              		.loc 3 31 9 is_stmt 1 view .LVU141
  31:Src/include/SPI_Connection.h **** 
 571              		.loc 3 31 15 is_stmt 0 view .LVU142
 572 005a 5168     		ldr	r1, [r2, #4]
  31:Src/include/SPI_Connection.h **** 
 573              		.loc 3 31 19 view .LVU143
 574 005c 21F4E061 		bic	r1, r1, #1792
 575 0060 5160     		str	r1, [r2, #4]
  33:Src/include/SPI_Connection.h **** 
 576              		.loc 3 33 9 is_stmt 1 view .LVU144
 577 0062 4FF48051 		mov	r1, #4096
ARM GAS  /tmp/ccKGLILm.s 			page 15


 578 0066 9961     		str	r1, [r3, #24]
  35:Src/include/SPI_Connection.h **** 
 579              		.loc 3 35 9 view .LVU145
  35:Src/include/SPI_Connection.h **** 
 580              		.loc 3 35 15 is_stmt 0 view .LVU146
 581 0068 1168     		ldr	r1, [r2]
  35:Src/include/SPI_Connection.h **** 
 582              		.loc 3 35 19 view .LVU147
 583 006a 41F04001 		orr	r1, r1, #64
 584 006e 1160     		str	r1, [r2]
  37:Src/include/SPI_Connection.h ****             __NOP();
 585              		.loc 3 37 9 is_stmt 1 view .LVU148
 586              	.LVL34:
 587              	.LBB71:
  37:Src/include/SPI_Connection.h ****             __NOP();
 588              		.loc 3 37 35 discriminator 1 view .LVU149
 589              	.LBE71:
  35:Src/include/SPI_Connection.h **** 
 590              		.loc 3 35 19 is_stmt 0 view .LVU150
 591 0070 4FF4FA72 		mov	r2, #500
 592              	.LVL35:
 593              	.L22:
 594              	.LBB72:
  38:Src/include/SPI_Connection.h ****         }
 595              		.loc 3 38 13 is_stmt 1 view .LVU151
 596              		.syntax unified
 597              	@ 38 "Src/include/SPI_Connection.h" 1
 598 0074 00BF     		nop
 599              	@ 0 "" 2
  37:Src/include/SPI_Connection.h ****             __NOP();
 600              		.loc 3 37 9 discriminator 3 view .LVU152
 601              	.LVL36:
  37:Src/include/SPI_Connection.h ****             __NOP();
 602              		.loc 3 37 35 discriminator 1 view .LVU153
 603              		.thumb
 604              		.syntax unified
 605 0076 013A     		subs	r2, r2, #1
 606              	.LVL37:
  37:Src/include/SPI_Connection.h ****             __NOP();
 607              		.loc 3 37 35 is_stmt 0 discriminator 1 view .LVU154
 608 0078 FCD1     		bne	.L22
 609              	.LBE72:
  41:Src/include/SPI_Connection.h ****     }
 610              		.loc 3 41 9 is_stmt 1 view .LVU155
  41:Src/include/SPI_Connection.h ****     }
 611              		.loc 3 41 16 is_stmt 0 view .LVU156
 612 007a 9A69     		ldr	r2, [r3, #24]
 613              	.LVL38:
  41:Src/include/SPI_Connection.h ****     }
 614              		.loc 3 41 21 view .LVU157
 615 007c 42F48042 		orr	r2, r2, #16384
 616 0080 9A61     		str	r2, [r3, #24]
 617              	.LBE70:
  42:Src/include/SPI_Connection.h **** 
 618              		.loc 3 42 5 view .LVU158
 619 0082 7047     		bx	lr
 620              	.L25:
ARM GAS  /tmp/ccKGLILm.s 			page 16


 621              		.align	2
 622              	.L24:
 623 0084 00100240 		.word	1073876992
 624 0088 00040048 		.word	1207960576
 625 008c 00380040 		.word	1073756160
 626              		.cfi_endproc
 627              	.LFE142:
 628              		.cantunwind
 629              		.fnend
 631              		.weak	_ZN14SPI_ConnectionC1Ev
 632              		.thumb_set _ZN14SPI_ConnectionC1Ev,_ZN14SPI_ConnectionC2Ev
 633              		.section	.text._ZN13ScreenControl13assembleFrameEv,"axG",%progbits,_ZN13ScreenControl13assembleFra
 634              		.align	1
 635              		.weak	_ZN13ScreenControl13assembleFrameEv
 636              		.syntax unified
 637              		.thumb
 638              		.thumb_func
 640              	_ZN13ScreenControl13assembleFrameEv:
 641              		.fnstart
 642              	.LVL39:
 643              	.LFB161:
 644              		.file 4 "Src/include/ScreenControl.h"
   1:Src/include/ScreenControl.h **** #ifndef SCREEN_CONTROL_H
   2:Src/include/ScreenControl.h **** #define SCREEN_CONTROL_H
   3:Src/include/ScreenControl.h **** 
   4:Src/include/ScreenControl.h **** //#include <vector>
   5:Src/include/ScreenControl.h **** 
   6:Src/include/ScreenControl.h **** #include <stm32g474xx.h>
   7:Src/include/ScreenControl.h **** 
   8:Src/include/ScreenControl.h **** #include "Label.h"
   9:Src/include/ScreenControl.h **** #include "SPI_Connection.h"
  10:Src/include/ScreenControl.h **** 
  11:Src/include/ScreenControl.h **** //add pages later
  12:Src/include/ScreenControl.h **** 
  13:Src/include/ScreenControl.h ****         uint8_t t = 8 * 32 / 2;
  14:Src/include/ScreenControl.h ****         //array is stored as uint8_t reversed pairs
  15:Src/include/ScreenControl.h ****         uint8_t testData[8*32/2] = {0xFF, 0xFF, 0xFF, 0xFF,     0xFF, 0xFF, 0xFF, 0xFF,    0xFF, 0x
  16:Src/include/ScreenControl.h ****                                     0xFF, 0xFF, 0xFF, 0xFF,     0xFF, 0xFF, 0xFF, 0xFF,    0xFF, 0x
  17:Src/include/ScreenControl.h ****                                     0xFF, 0xFF, 0xFF, 0xFF,     0xFF, 0xFF, 0xFF, 0xFF,    0xFF, 0x
  18:Src/include/ScreenControl.h ****                                     0xFF, 0xFF, 0xFF, 0xFF,     0xFF, 0xFF, 0xFF, 0xFF,    0xFF, 0x
  19:Src/include/ScreenControl.h ****                                     0xFF, 0xFF, 0xFF, 0xFF,     0xFF, 0xFF, 0xFF, 0xFF,    0xFF, 0x
  20:Src/include/ScreenControl.h ****                                     0xFF, 0xFF, 0xFF, 0xFF,     0xFF, 0xFF, 0xFF, 0xFF,    0xFF, 0x
  21:Src/include/ScreenControl.h ****                                     0xFF, 0xFF, 0xFF, 0xFF,     0xFF, 0xFF, 0xFF, 0xFF,    0xFF, 0x
  22:Src/include/ScreenControl.h ****                                     0xFF, 0xFF, 0xFF, 0xFF,     0xFF, 0xFF, 0xFF, 0xFF,    0xFF, 0x
  23:Src/include/ScreenControl.h ****                                     };
  24:Src/include/ScreenControl.h **** 
  25:Src/include/ScreenControl.h ****         uint8_t testData2[8*32/2] = {0xFF, 0xFF, 0xFF, 0xFF, 0xFF, 0xFF, 0xFF, 0xFF, 0xFF, 0xFF, 0x
  26:Src/include/ScreenControl.h ****                                     0xFF, 0xFF, 0xFF, 0xFF, 0xFF, 0xFF, 0xFF, 0xFF, 0xFF, 0xFF, 0xF
  27:Src/include/ScreenControl.h ****                                     0xFF, 0xFF, 0xFF, 0xFF, 0xFF, 0xFF, 0xFF, 0xFF, 0xFF, 0xFF, 0xF
  28:Src/include/ScreenControl.h ****                                     0xFF, 0xFF, 0xFF, 0xFF, 0xFF, 0xFF, 0xFF, 0xFF, 0xFF, 0xFF, 0xF
  29:Src/include/ScreenControl.h ****                                     0xFF, 0xFF, 0xFF, 0xFF, 0xFF, 0xFF, 0xFF, 0xFF, 0xFF, 0xFF, 0xF
  30:Src/include/ScreenControl.h ****                                     0xFF, 0xFF, 0xFF, 0xFF, 0xFF, 0xFF, 0xFF, 0xFF, 0xFF, 0xFF, 0xF
  31:Src/include/ScreenControl.h ****                                     0xFF, 0xFF, 0xFF, 0xFF, 0xFF, 0xFF, 0xFF, 0xFF, 0xFF, 0xFF, 0xF
  32:Src/include/ScreenControl.h ****                                     0xFF, 0xFF, 0xFF, 0xFF, 0xFF, 0xFF, 0xFF, 0xFF, 0xFF, 0xFF, 0xF
  33:Src/include/ScreenControl.h ****                                     };
  34:Src/include/ScreenControl.h **** 
  35:Src/include/ScreenControl.h ****         Label l1(testData, t, 32, 8, 0, 0);
ARM GAS  /tmp/ccKGLILm.s 			page 17


  36:Src/include/ScreenControl.h ****         Label l2(testData2, t, 16, 8, 0, 32);
  37:Src/include/ScreenControl.h ****         Label l3(testData2, t, 32, 8, 64, 0);
  38:Src/include/ScreenControl.h ****         Label l4(testData2, t, 32, 4, 64, 32);
  39:Src/include/ScreenControl.h **** 
  40:Src/include/ScreenControl.h **** class ScreenControl{
  41:Src/include/ScreenControl.h **** private:
  42:Src/include/ScreenControl.h ****     SPI_Connection* connection = nullptr;
  43:Src/include/ScreenControl.h **** 
  44:Src/include/ScreenControl.h ****     const uint8_t labelNum = 4;
  45:Src/include/ScreenControl.h ****     Label* page_1[4] = {nullptr, nullptr, nullptr, nullptr};
  46:Src/include/ScreenControl.h **** 
  47:Src/include/ScreenControl.h ****     const uint16_t dataLen = 256*64/2;
  48:Src/include/ScreenControl.h ****     uint8_t visualData[256*64/2] = {0};
  49:Src/include/ScreenControl.h **** 
  50:Src/include/ScreenControl.h ****     const uint8_t screenWidth   = 256/2;
  51:Src/include/ScreenControl.h ****     const uint8_t screenHeight  = 64;
  52:Src/include/ScreenControl.h **** 
  53:Src/include/ScreenControl.h **** public:
  54:Src/include/ScreenControl.h ****     ScreenControl(SPI_Connection* c){
  55:Src/include/ScreenControl.h ****         connection = c;
  56:Src/include/ScreenControl.h **** 
  57:Src/include/ScreenControl.h ****         //testing
  58:Src/include/ScreenControl.h **** 
  59:Src/include/ScreenControl.h ****         page_1[0] = &l1;
  60:Src/include/ScreenControl.h ****         page_1[1] = &l2;
  61:Src/include/ScreenControl.h ****         page_1[2] = &l3;
  62:Src/include/ScreenControl.h ****         page_1[3] = &l4;
  63:Src/include/ScreenControl.h **** 
  64:Src/include/ScreenControl.h ****     }
  65:Src/include/ScreenControl.h ****     ~ScreenControl(){}
  66:Src/include/ScreenControl.h **** 
  67:Src/include/ScreenControl.h ****     void placeLabel(Label* label){
  68:Src/include/ScreenControl.h ****         //uint8_t c = 0;
  69:Src/include/ScreenControl.h ****         for(uint8_t i = 0; i < label->height; i++){
  70:Src/include/ScreenControl.h ****             for(uint8_t j = 0; j < label->width/2; j++){
  71:Src/include/ScreenControl.h ****                 visualData[dataLen - 1 - (label->xPos/2 + label->yPos*screenWidth + i*screenWidth +
  72:Src/include/ScreenControl.h ****                 visualData[dataLen - 1 - (label->xPos/2 + label->yPos*screenWidth + i*screenWidth +
  73:Src/include/ScreenControl.h ****                 j++;
  74:Src/include/ScreenControl.h ****             }
  75:Src/include/ScreenControl.h ****         }
  76:Src/include/ScreenControl.h ****     }
  77:Src/include/ScreenControl.h **** 
  78:Src/include/ScreenControl.h ****     void assembleFrame(){ //combine /w placeLabel()
 645              		.loc 4 78 10 is_stmt 1 view -0
 646              		.cfi_startproc
 647              		@ args = 0, pretend = 0, frame = 8
 648              		@ frame_needed = 0, uses_anonymous_args = 0
  79:Src/include/ScreenControl.h ****         for(uint16_t i = 0; i < labelNum; i++){
 649              		.loc 4 79 9 view .LVU160
  78:Src/include/ScreenControl.h ****         for(uint16_t i = 0; i < labelNum; i++){
 650              		.loc 4 78 10 is_stmt 0 view .LVU161
 651 0000 2DE9F74F 		push	{r0, r1, r2, r4, r5, r6, r7, r8, r9, r10, fp, lr}
 652              	.LCFI7:
 653              		.cfi_def_cfa_offset 48
 654              		.cfi_offset 4, -36
 655              		.cfi_offset 5, -32
 656              		.cfi_offset 6, -28
ARM GAS  /tmp/ccKGLILm.s 			page 18


 657              		.cfi_offset 7, -24
 658              		.cfi_offset 8, -20
 659              		.cfi_offset 9, -16
 660              		.cfi_offset 10, -12
 661              		.cfi_offset 11, -8
 662              		.cfi_offset 14, -4
 663              	.LBB78:
 664              		.loc 4 79 31 discriminator 1 view .LVU162
 665 0004 0646     		mov	r6, r0
 666              		.loc 4 79 9 view .LVU163
 667 0006 4FF0000C 		mov	ip, #0
 668              		.loc 4 79 31 discriminator 1 view .LVU164
 669 000a 16F8043F 		ldrb	r3, [r6, #4]!	@ zero_extendqisi2
 670 000e 0193     		str	r3, [sp, #4]
 671              	.LBB79:
 672              	.LBB80:
 673              	.LBB81:
  71:Src/include/ScreenControl.h ****                 visualData[dataLen - 1 - (label->xPos/2 + label->yPos*screenWidth + i*screenWidth +
 674              		.loc 4 71 71 view .LVU165
 675 0010 00F50059 		add	r9, r0, #8192
 676              	.LVL40:
 677              	.L27:
  71:Src/include/ScreenControl.h ****                 visualData[dataLen - 1 - (label->xPos/2 + label->yPos*screenWidth + i*screenWidth +
 678              		.loc 4 71 71 view .LVU166
 679              	.LBE81:
 680              	.LBE80:
 681              	.LBE79:
 682              		.loc 4 79 31 is_stmt 1 discriminator 1 view .LVU167
 683 0014 019A     		ldr	r2, [sp, #4]
 684 0016 1FFA8CF3 		uxth	r3, ip
 685 001a 9A42     		cmp	r2, r3
 686 001c 02D8     		bhi	.L31
 687              	.LBE78:
  80:Src/include/ScreenControl.h ****             placeLabel(page_1[i]);
  81:Src/include/ScreenControl.h ****         }
  82:Src/include/ScreenControl.h ****     }
 688              		.loc 4 82 5 is_stmt 0 view .LVU168
 689 001e 03B0     		add	sp, sp, #12
 690              	.LCFI8:
 691              		.cfi_remember_state
 692              		.cfi_def_cfa_offset 36
 693              		@ sp needed
 694 0020 BDE8F08F 		pop	{r4, r5, r6, r7, r8, r9, r10, fp, pc}
 695              	.L31:
 696              	.LCFI9:
 697              		.cfi_restore_state
 698              	.LBB87:
  80:Src/include/ScreenControl.h ****             placeLabel(page_1[i]);
 699              		.loc 4 80 13 is_stmt 1 view .LVU169
  80:Src/include/ScreenControl.h ****             placeLabel(page_1[i]);
 700              		.loc 4 80 23 is_stmt 0 view .LVU170
 701 0024 56F8043F 		ldr	r3, [r6, #4]!
 702              	.LVL41:
 703              	.LBB85:
 704              	.LBI79:
  67:Src/include/ScreenControl.h ****         //uint8_t c = 0;
 705              		.loc 4 67 10 is_stmt 1 view .LVU171
ARM GAS  /tmp/ccKGLILm.s 			page 19


  69:Src/include/ScreenControl.h ****             for(uint8_t j = 0; j < label->width/2; j++){
 706              		.loc 4 69 9 view .LVU172
 707              	.LBB83:
  69:Src/include/ScreenControl.h ****             for(uint8_t j = 0; j < label->width/2; j++){
 708              		.loc 4 69 9 is_stmt 0 view .LVU173
 709 0028 4FF0000E 		mov	lr, #0
 710              	.LVL42:
 711              	.L28:
  69:Src/include/ScreenControl.h ****             for(uint8_t j = 0; j < label->width/2; j++){
 712              		.loc 4 69 30 is_stmt 1 discriminator 1 view .LVU174
 713 002c 9A79     		ldrb	r2, [r3, #6]	@ zero_extendqisi2
 714 002e 5FFA8EF7 		uxtb	r7, lr
 715 0032 BA42     		cmp	r2, r7
 716 0034 38D8     		bhi	.L32
 717              	.LVL43:
  69:Src/include/ScreenControl.h ****             for(uint8_t j = 0; j < label->width/2; j++){
 718              		.loc 4 69 30 is_stmt 0 discriminator 1 view .LVU175
 719              	.LBE83:
 720              	.LBE85:
  79:Src/include/ScreenControl.h ****             placeLabel(page_1[i]);
 721              		.loc 4 79 9 is_stmt 1 discriminator 3 view .LVU176
  79:Src/include/ScreenControl.h ****             placeLabel(page_1[i]);
 722              		.loc 4 79 9 is_stmt 0 discriminator 3 view .LVU177
 723 0036 0CF1010C 		add	ip, ip, #1
 724              	.LVL44:
  79:Src/include/ScreenControl.h ****             placeLabel(page_1[i]);
 725              		.loc 4 79 9 discriminator 3 view .LVU178
 726 003a EBE7     		b	.L27
 727              	.LVL45:
 728              	.L29:
 729              	.LBB86:
 730              	.LBB84:
 731              	.LBB82:
  71:Src/include/ScreenControl.h ****                 visualData[dataLen - 1 - (label->xPos/2 + label->yPos*screenWidth + i*screenWidth +
 732              		.loc 4 71 17 is_stmt 1 view .LVU179
  71:Src/include/ScreenControl.h ****                 visualData[dataLen - 1 - (label->xPos/2 + label->yPos*screenWidth + i*screenWidth +
 733              		.loc 4 71 120 is_stmt 0 view .LVU180
 734 003c 07FB02F4 		mul	r4, r7, r2
  71:Src/include/ScreenControl.h ****                 visualData[dataLen - 1 - (label->xPos/2 + label->yPos*screenWidth + i*screenWidth +
 735              		.loc 4 71 143 view .LVU181
 736 0040 1A68     		ldr	r2, [r3]
  71:Src/include/ScreenControl.h ****                 visualData[dataLen - 1 - (label->xPos/2 + label->yPos*screenWidth + i*screenWidth +
 737              		.loc 4 71 71 view .LVU182
 738 0042 99F81A80 		ldrb	r8, [r9, #26]	@ zero_extendqisi2
  71:Src/include/ScreenControl.h ****                 visualData[dataLen - 1 - (label->xPos/2 + label->yPos*screenWidth + i*screenWidth +
 739              		.loc 4 71 70 view .LVU183
 740 0046 93F808B0 		ldrb	fp, [r3, #8]	@ zero_extendqisi2
  71:Src/include/ScreenControl.h ****                 visualData[dataLen - 1 - (label->xPos/2 + label->yPos*screenWidth + i*screenWidth +
 741              		.loc 4 71 28 view .LVU184
 742 004a 018B     		ldrh	r1, [r0, #24]
  71:Src/include/ScreenControl.h ****                 visualData[dataLen - 1 - (label->xPos/2 + label->yPos*screenWidth + i*screenWidth +
 743              		.loc 4 71 143 view .LVU185
 744 004c 2A44     		add	r2, r2, r5
 745 004e 02EB6402 		add	r2, r2, r4, asr #1
  71:Src/include/ScreenControl.h ****                 visualData[dataLen - 1 - (label->xPos/2 + label->yPos*screenWidth + i*screenWidth +
 746              		.loc 4 71 40 view .LVU186
 747 0052 07FB0854 		mla	r4, r7, r8, r5
ARM GAS  /tmp/ccKGLILm.s 			page 20


  71:Src/include/ScreenControl.h ****                 visualData[dataLen - 1 - (label->xPos/2 + label->yPos*screenWidth + i*screenWidth +
 748              		.loc 4 71 143 view .LVU187
 749 0056 92F801A0 		ldrb	r10, [r2, #1]	@ zero_extendqisi2
  71:Src/include/ScreenControl.h ****                 visualData[dataLen - 1 - (label->xPos/2 + label->yPos*screenWidth + i*screenWidth +
 750              		.loc 4 71 54 view .LVU188
 751 005a DA79     		ldrb	r2, [r3, #7]	@ zero_extendqisi2
  71:Src/include/ScreenControl.h ****                 visualData[dataLen - 1 - (label->xPos/2 + label->yPos*screenWidth + i*screenWidth +
 752              		.loc 4 71 40 view .LVU189
 753 005c 04EB5202 		add	r2, r4, r2, lsr #1
  71:Src/include/ScreenControl.h ****                 visualData[dataLen - 1 - (label->xPos/2 + label->yPos*screenWidth + i*screenWidth +
 754              		.loc 4 71 36 view .LVU190
 755 0060 0139     		subs	r1, r1, #1
  71:Src/include/ScreenControl.h ****                 visualData[dataLen - 1 - (label->xPos/2 + label->yPos*screenWidth + i*screenWidth +
 756              		.loc 4 71 40 view .LVU191
 757 0062 0BFB0822 		mla	r2, fp, r8, r2
 758 0066 8A1A     		subs	r2, r1, r2
  71:Src/include/ScreenControl.h ****                 visualData[dataLen - 1 - (label->xPos/2 + label->yPos*screenWidth + i*screenWidth +
 759              		.loc 4 71 105 view .LVU192
 760 0068 0244     		add	r2, r2, r0
 761 006a 82F81AA0 		strb	r10, [r2, #26]
  72:Src/include/ScreenControl.h ****                 j++;
 762              		.loc 4 72 17 is_stmt 1 view .LVU193
  72:Src/include/ScreenControl.h ****                 j++;
 763              		.loc 4 72 132 is_stmt 0 view .LVU194
 764 006e 93F805A0 		ldrb	r10, [r3, #5]	@ zero_extendqisi2
  72:Src/include/ScreenControl.h ****                 j++;
 765              		.loc 4 72 143 view .LVU195
 766 0072 1A68     		ldr	r2, [r3]
  72:Src/include/ScreenControl.h ****                 j++;
 767              		.loc 4 72 54 view .LVU196
 768 0074 93F807B0 		ldrb	fp, [r3, #7]	@ zero_extendqisi2
  72:Src/include/ScreenControl.h ****                 j++;
 769              		.loc 4 72 124 view .LVU197
 770 0078 07FB0AFA 		mul	r10, r7, r10
  72:Src/include/ScreenControl.h ****                 j++;
 771              		.loc 4 72 143 view .LVU198
 772 007c 02EB6A02 		add	r2, r2, r10, asr #1
  72:Src/include/ScreenControl.h ****                 j++;
 773              		.loc 4 72 70 view .LVU199
 774 0080 93F808A0 		ldrb	r10, [r3, #8]	@ zero_extendqisi2
  72:Src/include/ScreenControl.h ****                 j++;
 775              		.loc 4 72 143 view .LVU200
 776 0084 525D     		ldrb	r2, [r2, r5]	@ zero_extendqisi2
  72:Src/include/ScreenControl.h ****                 j++;
 777              		.loc 4 72 40 view .LVU201
 778 0086 04EB5B04 		add	r4, r4, fp, lsr #1
 779 008a 0AFB0844 		mla	r4, r10, r8, r4
 780 008e 0134     		adds	r4, r4, #1
 781 0090 091B     		subs	r1, r1, r4
  72:Src/include/ScreenControl.h ****                 j++;
 782              		.loc 4 72 109 view .LVU202
 783 0092 0144     		add	r1, r1, r0
 784 0094 0235     		adds	r5, r5, #2
 785              	.LVL46:
  72:Src/include/ScreenControl.h ****                 j++;
 786              		.loc 4 72 109 view .LVU203
 787 0096 8A76     		strb	r2, [r1, #26]
ARM GAS  /tmp/ccKGLILm.s 			page 21


  73:Src/include/ScreenControl.h ****             }
 788              		.loc 4 73 17 is_stmt 1 view .LVU204
  70:Src/include/ScreenControl.h ****                 visualData[dataLen - 1 - (label->xPos/2 + label->yPos*screenWidth + i*screenWidth +
 789              		.loc 4 70 13 discriminator 3 view .LVU205
 790              	.LVL47:
 791              	.L30:
  70:Src/include/ScreenControl.h ****                 visualData[dataLen - 1 - (label->xPos/2 + label->yPos*screenWidth + i*screenWidth +
 792              		.loc 4 70 34 discriminator 1 view .LVU206
  70:Src/include/ScreenControl.h ****                 visualData[dataLen - 1 - (label->xPos/2 + label->yPos*screenWidth + i*screenWidth +
 793              		.loc 4 70 43 is_stmt 0 discriminator 1 view .LVU207
 794 0098 5A79     		ldrb	r2, [r3, #5]	@ zero_extendqisi2
  70:Src/include/ScreenControl.h ****                 visualData[dataLen - 1 - (label->xPos/2 + label->yPos*screenWidth + i*screenWidth +
 795              		.loc 4 70 34 discriminator 1 view .LVU208
 796 009a E9B2     		uxtb	r1, r5
 797 009c B1EB520F 		cmp	r1, r2, lsr #1
 798 00a0 CCD3     		bcc	.L29
 799              	.LBE82:
  69:Src/include/ScreenControl.h ****             for(uint8_t j = 0; j < label->width/2; j++){
 800              		.loc 4 69 9 is_stmt 1 discriminator 2 view .LVU209
 801              	.LVL48:
  69:Src/include/ScreenControl.h ****             for(uint8_t j = 0; j < label->width/2; j++){
 802              		.loc 4 69 9 is_stmt 0 discriminator 2 view .LVU210
 803 00a2 0EF1010E 		add	lr, lr, #1
 804              	.LVL49:
  69:Src/include/ScreenControl.h ****             for(uint8_t j = 0; j < label->width/2; j++){
 805              		.loc 4 69 9 discriminator 2 view .LVU211
 806 00a6 C1E7     		b	.L28
 807              	.LVL50:
 808              	.L32:
  69:Src/include/ScreenControl.h ****             for(uint8_t j = 0; j < label->width/2; j++){
 809              		.loc 4 69 9 discriminator 2 view .LVU212
 810 00a8 0025     		movs	r5, #0
 811 00aa F5E7     		b	.L30
 812              	.LBE84:
 813              	.LBE86:
 814              	.LBE87:
 815              		.cfi_endproc
 816              	.LFE161:
 817              		.cantunwind
 818              		.fnend
 820              		.section	.text._Z14Spi_Write_Datat,"ax",%progbits
 821              		.align	1
 822              		.global	_Z14Spi_Write_Datat
 823              		.syntax unified
 824              		.thumb
 825              		.thumb_func
 827              	_Z14Spi_Write_Datat:
 828              		.fnstart
 829              	.LVL51:
 830              	.LFB172:
   1:Src/main.c    **** #include <stm32g474xx.h>
   2:Src/main.c    **** 
   3:Src/main.c    **** #include "include/ScreenControl.h"
   4:Src/main.c    **** 
   5:Src/main.c    **** #include "include/FONT_A.h" //test font
   6:Src/main.c    **** 
   7:Src/main.c    **** #include "include/Font.h"
ARM GAS  /tmp/ccKGLILm.s 			page 22


   8:Src/main.c    **** #include "include/Label.h"
   9:Src/main.c    **** #include "include/ScreenControl.h"
  10:Src/main.c    **** 
  11:Src/main.c    **** #include "include/SPI_Connection.h"
  12:Src/main.c    **** 
  13:Src/main.c    ****     // =========== OLED SPI ======================
  14:Src/main.c    ****     // PA5 -- SCK
  15:Src/main.c    ****     // PA7 -- MOSI
  16:Src/main.c    ****     // PA15 -- CS
  17:Src/main.c    ****     // PA14 -- RESET
  18:Src/main.c    **** 
  19:Src/main.c    ****     // PB12 -- SPI2_NSS --CS
  20:Src/main.c    ****     // PB13 -- SPI2_SCK --SCK
  21:Src/main.c    ****     // PB14 -- RESET OLED
  22:Src/main.c    ****     // PB15 -- SPI2_MOSI --SDO
  23:Src/main.c    **** 
  24:Src/main.c    **** #define		 CS_LOW 	GPIOB->BSRR = GPIO_BSRR_BR12;
  25:Src/main.c    **** #define 	 CS_HIGH 	GPIOB->BSRR = GPIO_BSRR_BS12;
  26:Src/main.c    **** 
  27:Src/main.c    **** static inline void write_char(uint8_t x_pos, uint8_t y_pos, const uint32_t *Char)  __attribute__((a
  28:Src/main.c    **** 
  29:Src/main.c    **** static inline void Spi_Init(void)
  30:Src/main.c    **** {
  31:Src/main.c    ****     // –≤–Ї–ї—О—З–∞–µ–Љ —В–∞–Ї—В–Є—А–Њ–≤–∞–љ–Є–µ PortB
  32:Src/main.c    ****     RCC->AHB2ENR  |= RCC_AHB2ENR_GPIOBEN;
  33:Src/main.c    **** 
  34:Src/main.c    ****     GPIOB->MODER  &= ~(GPIO_MODER_MODE12   | GPIO_MODER_MODE13   | GPIO_MODER_MODE14   | GPIO_MODER
  35:Src/main.c    ****     GPIOB->MODER  |=  (GPIO_MODER_MODE12_0 | GPIO_MODER_MODE13_1 | GPIO_MODER_MODE14_0 | GPIO_MODER
  36:Src/main.c    ****     GPIOB->AFR[1] &= ~( GPIO_AFRH_AFSEL13   | GPIO_AFRH_AFSEL15 ); // AF5 –і–ї—П PB13, PB15
  37:Src/main.c    ****     GPIOB->AFR[1] |=  ( GPIO_AFRH_AFSEL13_2 | GPIO_AFRH_AFSEL13_0 | GPIO_AFRH_AFSEL15_2 | GPIO_AFRH
  38:Src/main.c    **** 
  39:Src/main.c    ****     GPIOB->BSRR |= GPIO_BSRR_BR14; // —И–ї–µ–Љ —Б–±—А–Њ—Б –љ–∞ PB14
  40:Src/main.c    **** 
  41:Src/main.c    ****     // –≤–Ї–ї—О—З–∞–µ–Љ SPI2 –љ–∞ —В–∞–Ї—В–Є—А–Њ–≤–∞–љ–Є–µ
  42:Src/main.c    ****     RCC->APB1ENR1 |= RCC_APB1ENR1_SPI2EN;
  43:Src/main.c    **** 
  44:Src/main.c    ****     SPI2->CR1 |= SPI_CR1_MSTR | SPI_CR1_CPOL | SPI_CR1_CPHA | SPI_CR1_BR_0 | SPI_CR1_BR_1 | SPI_CR1
  45:Src/main.c    ****     SPI2->CR2 |= SPI_CR2_DS_3;  // –і–ї–Є–љ–∞ —Д—А–µ–є–Љ–∞ 9-–±–Є—В
  46:Src/main.c    ****     SPI2->CR2 &= ~(SPI_CR2_DS_0 | SPI_CR2_DS_1 | SPI_CR2_DS_2);
  47:Src/main.c    **** 
  48:Src/main.c    ****     CS_HIGH
  49:Src/main.c    **** 
  50:Src/main.c    ****     SPI2->CR1 |= SPI_CR1_SPE; // –≤–Ї–ї—О—З–∞–µ–Љ SPI
  51:Src/main.c    **** 
  52:Src/main.c    ****     for(uint32_t timer=0;timer<500;timer++) {
  53:Src/main.c    ****         __NOP();
  54:Src/main.c    ****     }
  55:Src/main.c    **** 
  56:Src/main.c    ****     GPIOB->BSRR |= GPIO_BSRR_BS14; // –Њ—В–Ї–ї—О—З–∞–µ–Љ —Б–±—А–Њ—Б
  57:Src/main.c    **** }
  58:Src/main.c    **** 
  59:Src/main.c    **** static inline void joystickInit(){
  60:Src/main.c    **** /* –љ–∞—Б—В—А–∞–Є–≤–∞–µ–Љ GPI10 */
  61:Src/main.c    ****     GPIOB->MODER &= ~GPIO_MODER_MODER10;    //Up             /* MODE10=00 */
  62:Src/main.c    ****     GPIOB->PUPDR |=  GPIO_PUPDR_PUPD10_0;                    /* PUPD10=01 */
  63:Src/main.c    **** 
  64:Src/main.c    ****     GPIOB->MODER &= ~GPIO_MODER_MODER2;     //Right
ARM GAS  /tmp/ccKGLILm.s 			page 23


  65:Src/main.c    ****     GPIOB->PUPDR |=  GPIO_PUPDR_PUPD2_0;
  66:Src/main.c    **** 
  67:Src/main.c    ****     GPIOC->MODER &= ~GPIO_MODER_MODER4;     //Left
  68:Src/main.c    ****     GPIOC->PUPDR |=  GPIO_PUPDR_PUPD4_0;
  69:Src/main.c    **** 
  70:Src/main.c    ****     GPIOC->MODER &= ~GPIO_MODER_MODER5;     //Down
  71:Src/main.c    ****     GPIOC->PUPDR |=  GPIO_PUPDR_PUPD5_0;
  72:Src/main.c    **** 
  73:Src/main.c    ****     GPIOC->MODER &= ~GPIO_MODER_MODER13;    //Center
  74:Src/main.c    ****     GPIOC->PUPDR |=  GPIO_PUPDR_PUPD13_0;
  75:Src/main.c    **** 
  76:Src/main.c    ****     /*
  77:Src/main.c    ****         00: No pull-up, pull-down
  78:Src/main.c    ****         01: Pull-up
  79:Src/main.c    ****         10: Pull-down
  80:Src/main.c    ****         11: Reserved
  81:Src/main.c    ****     */
  82:Src/main.c    **** }
  83:Src/main.c    **** 
  84:Src/main.c    **** uint16_t Spi_Write_Data(uint16_t data)
  85:Src/main.c    **** {
 831              		.loc 1 85 1 is_stmt 1 view -0
 832              		.cfi_startproc
 833              		@ args = 0, pretend = 0, frame = 0
 834              		@ frame_needed = 0, uses_anonymous_args = 0
 835              		@ link register save eliminated.
  86:Src/main.c    ****         //–ґ–і—С–Љ –њ–Њ–Ї–∞ –Њ–њ—Г—Б—В–Њ—И–Є—В—Б—П Tx –±—Г—Д–µ—А
  87:Src/main.c    **** 	while(!(SPI2->SR & SPI_SR_TXE));
 836              		.loc 1 87 2 view .LVU214
 837              		.loc 1 87 16 is_stmt 0 discriminator 1 view .LVU215
 838 0000 084B     		ldr	r3, .L40
 839              	.L34:
 840              		.loc 1 87 8 is_stmt 1 discriminator 1 view .LVU216
 841              		.loc 1 87 16 is_stmt 0 discriminator 1 view .LVU217
 842 0002 9A68     		ldr	r2, [r3, #8]
 843              		.loc 1 87 8 discriminator 1 view .LVU218
 844 0004 9207     		lsls	r2, r2, #30
 845 0006 FCD5     		bpl	.L34
  88:Src/main.c    **** 	//–∞–Ї—В–Є–≤–Є—А—Г–µ–Љ Chip Select
  89:Src/main.c    **** 	CS_LOW
 846              		.loc 1 89 2 is_stmt 1 view .LVU219
 847 0008 074A     		ldr	r2, .L40+4
 848 000a 4FF08051 		mov	r1, #268435456
 849 000e 9161     		str	r1, [r2, #24]
  90:Src/main.c    ****         //–Њ—В–њ—А–∞–≤–ї—П–µ–Љ –і–∞–љ–љ—Л–µ
  91:Src/main.c    **** 	SPI2->DR = data;
 850              		.loc 1 91 2 view .LVU220
 851              		.loc 1 91 11 is_stmt 0 view .LVU221
 852 0010 D860     		str	r0, [r3, #12]
  92:Src/main.c    **** 
  93:Src/main.c    ****         //–ґ–і—С–Љ –њ–Њ–Ї–∞ –њ—А–Є–і—С—В –Њ—В–≤–µ—В
  94:Src/main.c    **** 	while(!(SPI2->SR & SPI_SR_RXNE));
 853              		.loc 1 94 2 is_stmt 1 view .LVU222
 854              	.L35:
 855              		.loc 1 94 8 discriminator 1 view .LVU223
 856              		.loc 1 94 16 is_stmt 0 discriminator 1 view .LVU224
 857 0012 9968     		ldr	r1, [r3, #8]
ARM GAS  /tmp/ccKGLILm.s 			page 24


 858              		.loc 1 94 8 discriminator 1 view .LVU225
 859 0014 C907     		lsls	r1, r1, #31
 860 0016 FCD5     		bpl	.L35
  95:Src/main.c    ****         //—Б—З–Є—В—Л–≤–∞–µ–Љ –њ–Њ–ї—Г—З–µ–љ–љ—Л–µ –і–∞–љ–љ—Л–µ
  96:Src/main.c    **** 	data = SPI2->DR;
 861              		.loc 1 96 2 is_stmt 1 view .LVU226
 862              		.loc 1 96 15 is_stmt 0 view .LVU227
 863 0018 D868     		ldr	r0, [r3, #12]
 864              	.LVL52:
  97:Src/main.c    **** 	//–і–µ–∞–Ї—В–Є–≤–Є—А—Г–µ–Љ Chip Select
  98:Src/main.c    **** 	CS_HIGH
 865              		.loc 1 98 2 is_stmt 1 view .LVU228
 866 001a 4FF48053 		mov	r3, #4096
 867 001e 9361     		str	r3, [r2, #24]
  99:Src/main.c    ****         //–≤–Њ–Ј–≤—А–∞—Й–∞–µ–Љ —В–Њ, —З—В–Њ –њ—А–Њ—З–Є—В–∞–ї–Є
 100:Src/main.c    ****        return data;
 868              		.loc 1 100 8 view .LVU229
 101:Src/main.c    **** }
 869              		.loc 1 101 1 is_stmt 0 view .LVU230
 870 0020 80B2     		uxth	r0, r0
 871              		.loc 1 101 1 view .LVU231
 872 0022 7047     		bx	lr
 873              	.L41:
 874              		.align	2
 875              	.L40:
 876 0024 00380040 		.word	1073756160
 877 0028 00040048 		.word	1207960576
 878              		.cfi_endproc
 879              	.LFE172:
 880              		.cantunwind
 881              		.fnend
 883              		.section	.text._Z19SSD1322_SPI_Write_Dh,"ax",%progbits
 884              		.align	1
 885              		.global	_Z19SSD1322_SPI_Write_Dh
 886              		.syntax unified
 887              		.thumb
 888              		.thumb_func
 890              	_Z19SSD1322_SPI_Write_Dh:
 891              		.fnstart
 892              	.LVL53:
 893              	.LFB173:
 102:Src/main.c    **** 
 103:Src/main.c    **** void SSD1322_SPI_Write_D(uint8_t data) {
 894              		.loc 1 103 40 is_stmt 1 view -0
 895              		.cfi_startproc
 896              		@ args = 0, pretend = 0, frame = 0
 897              		@ frame_needed = 0, uses_anonymous_args = 0
 898              		@ link register save eliminated.
 104:Src/main.c    **** 
 105:Src/main.c    ****     Spi_Write_Data(0x0100 | data);
 899              		.loc 1 105 5 view .LVU233
 900              		.loc 1 105 19 is_stmt 0 view .LVU234
 901 0000 40F48070 		orr	r0, r0, #256
 902              	.LVL54:
 903              		.loc 1 105 19 view .LVU235
 904 0004 FFF7FEBF 		b	_Z14Spi_Write_Datat
 905              	.LVL55:
ARM GAS  /tmp/ccKGLILm.s 			page 25


 906              		.cfi_endproc
 907              	.LFE173:
 908              		.cantunwind
 909              		.fnend
 911              		.section	.text._Z19SSD1322_SPI_Write_Ch,"ax",%progbits
 912              		.align	1
 913              		.global	_Z19SSD1322_SPI_Write_Ch
 914              		.syntax unified
 915              		.thumb
 916              		.thumb_func
 918              	_Z19SSD1322_SPI_Write_Ch:
 919              		.fnstart
 920              	.LVL56:
 921              	.LFB174:
 106:Src/main.c    **** }
 107:Src/main.c    **** 
 108:Src/main.c    **** void SSD1322_SPI_Write_C(uint8_t cmd) {
 922              		.loc 1 108 39 is_stmt 1 view -0
 923              		.cfi_startproc
 924              		@ args = 0, pretend = 0, frame = 0
 925              		@ frame_needed = 0, uses_anonymous_args = 0
 926              		@ link register save eliminated.
 109:Src/main.c    **** 
 110:Src/main.c    ****     Spi_Write_Data(cmd);
 927              		.loc 1 110 5 view .LVU237
 928              		.loc 1 110 19 is_stmt 0 view .LVU238
 929 0000 FFF7FEBF 		b	_Z14Spi_Write_Datat
 930              	.LVL57:
 931              		.loc 1 110 19 view .LVU239
 932              		.cfi_endproc
 933              	.LFE174:
 934              		.cantunwind
 935              		.fnend
 937              		.section	.text._Z20SSD1322_SPI_Write_CDhh,"ax",%progbits
 938              		.align	1
 939              		.global	_Z20SSD1322_SPI_Write_CDhh
 940              		.syntax unified
 941              		.thumb
 942              		.thumb_func
 944              	_Z20SSD1322_SPI_Write_CDhh:
 945              		.fnstart
 946              	.LVL58:
 947              	.LFB175:
 111:Src/main.c    **** }
 112:Src/main.c    **** 
 113:Src/main.c    **** void SSD1322_SPI_Write_CD(uint8_t cmd, uint8_t D0) {
 948              		.loc 1 113 52 is_stmt 1 view -0
 949              		.cfi_startproc
 950              		@ args = 0, pretend = 0, frame = 0
 951              		@ frame_needed = 0, uses_anonymous_args = 0
 114:Src/main.c    **** 
 115:Src/main.c    ****     SSD1322_SPI_Write_C(cmd);
 952              		.loc 1 115 5 view .LVU241
 953              	.LBB88:
 954              	.LBI88:
 108:Src/main.c    **** 
 955              		.loc 1 108 6 view .LVU242
ARM GAS  /tmp/ccKGLILm.s 			page 26


 956              	.LBB89:
 110:Src/main.c    **** }
 957              		.loc 1 110 5 view .LVU243
 958              	.LBE89:
 959              	.LBE88:
 113:Src/main.c    **** 
 960              		.loc 1 113 52 is_stmt 0 view .LVU244
 961 0000 10B5     		push	{r4, lr}
 962              	.LCFI10:
 963              		.cfi_def_cfa_offset 8
 964              		.cfi_offset 4, -8
 965              		.cfi_offset 14, -4
 113:Src/main.c    **** 
 966              		.loc 1 113 52 view .LVU245
 967 0002 0C46     		mov	r4, r1
 968              	.LBB91:
 969              	.LBB90:
 110:Src/main.c    **** }
 970              		.loc 1 110 19 view .LVU246
 971 0004 FFF7FEFF 		bl	_Z14Spi_Write_Datat
 972              	.LVL59:
 110:Src/main.c    **** }
 973              		.loc 1 110 19 view .LVU247
 974              	.LBE90:
 975              	.LBE91:
 116:Src/main.c    ****     SSD1322_SPI_Write_D(D0);
 976              		.loc 1 116 5 is_stmt 1 view .LVU248
 977              		.loc 1 116 24 is_stmt 0 view .LVU249
 978 0008 2046     		mov	r0, r4
 117:Src/main.c    **** }
 979              		.loc 1 117 1 view .LVU250
 980 000a BDE81040 		pop	{r4, lr}
 981              	.LCFI11:
 982              		.cfi_restore 14
 983              		.cfi_restore 4
 984              		.cfi_def_cfa_offset 0
 985              	.LVL60:
 116:Src/main.c    ****     SSD1322_SPI_Write_D(D0);
 986              		.loc 1 116 24 view .LVU251
 987 000e FFF7FEBF 		b	_Z19SSD1322_SPI_Write_Dh
 988              	.LVL61:
 116:Src/main.c    ****     SSD1322_SPI_Write_D(D0);
 989              		.loc 1 116 24 view .LVU252
 990              		.cfi_endproc
 991              	.LFE175:
 992              		.cantunwind
 993              		.fnend
 995              		.section	.text._Z21SSD1322_SPI_Write_CDDhhh,"ax",%progbits
 996              		.align	1
 997              		.global	_Z21SSD1322_SPI_Write_CDDhhh
 998              		.syntax unified
 999              		.thumb
 1000              		.thumb_func
 1002              	_Z21SSD1322_SPI_Write_CDDhhh:
 1003              		.fnstart
 1004              	.LVL62:
 1005              	.LFB176:
ARM GAS  /tmp/ccKGLILm.s 			page 27


 118:Src/main.c    **** 
 119:Src/main.c    **** void SSD1322_SPI_Write_CDD(uint8_t cmd, uint8_t D0, uint8_t D1) {
 1006              		.loc 1 119 65 is_stmt 1 view -0
 1007              		.cfi_startproc
 1008              		@ args = 0, pretend = 0, frame = 0
 1009              		@ frame_needed = 0, uses_anonymous_args = 0
 120:Src/main.c    **** 
 121:Src/main.c    ****     SSD1322_SPI_Write_C(cmd);
 1010              		.loc 1 121 5 view .LVU254
 1011              	.LBB92:
 1012              	.LBI92:
 108:Src/main.c    **** 
 1013              		.loc 1 108 6 view .LVU255
 1014              	.LBB93:
 110:Src/main.c    **** }
 1015              		.loc 1 110 5 view .LVU256
 1016              	.LBE93:
 1017              	.LBE92:
 119:Src/main.c    **** 
 1018              		.loc 1 119 65 is_stmt 0 view .LVU257
 1019 0000 38B5     		push	{r3, r4, r5, lr}
 1020              	.LCFI12:
 1021              		.cfi_def_cfa_offset 16
 1022              		.cfi_offset 3, -16
 1023              		.cfi_offset 4, -12
 1024              		.cfi_offset 5, -8
 1025              		.cfi_offset 14, -4
 119:Src/main.c    **** 
 1026              		.loc 1 119 65 view .LVU258
 1027 0002 0D46     		mov	r5, r1
 1028 0004 1446     		mov	r4, r2
 1029              	.LBB95:
 1030              	.LBB94:
 110:Src/main.c    **** }
 1031              		.loc 1 110 19 view .LVU259
 1032 0006 FFF7FEFF 		bl	_Z14Spi_Write_Datat
 1033              	.LVL63:
 110:Src/main.c    **** }
 1034              		.loc 1 110 19 view .LVU260
 1035              	.LBE94:
 1036              	.LBE95:
 122:Src/main.c    ****     SSD1322_SPI_Write_D(D0);
 1037              		.loc 1 122 5 is_stmt 1 view .LVU261
 1038              		.loc 1 122 24 is_stmt 0 view .LVU262
 1039 000a 2846     		mov	r0, r5
 1040 000c FFF7FEFF 		bl	_Z19SSD1322_SPI_Write_Dh
 1041              	.LVL64:
 123:Src/main.c    ****     SSD1322_SPI_Write_D(D1);
 1042              		.loc 1 123 5 is_stmt 1 view .LVU263
 1043              		.loc 1 123 24 is_stmt 0 view .LVU264
 1044 0010 2046     		mov	r0, r4
 124:Src/main.c    **** }
 1045              		.loc 1 124 1 view .LVU265
 1046 0012 BDE83840 		pop	{r3, r4, r5, lr}
 1047              	.LCFI13:
 1048              		.cfi_restore 14
 1049              		.cfi_restore 5
ARM GAS  /tmp/ccKGLILm.s 			page 28


 1050              		.cfi_restore 4
 1051              		.cfi_restore 3
 1052              		.cfi_def_cfa_offset 0
 1053              	.LVL65:
 123:Src/main.c    ****     SSD1322_SPI_Write_D(D1);
 1054              		.loc 1 123 24 view .LVU266
 1055 0016 FFF7FEBF 		b	_Z19SSD1322_SPI_Write_Dh
 1056              	.LVL66:
 123:Src/main.c    ****     SSD1322_SPI_Write_D(D1);
 1057              		.loc 1 123 24 view .LVU267
 1058              		.cfi_endproc
 1059              	.LFE176:
 1060              		.cantunwind
 1061              		.fnend
 1063              		.section	.text._Z22SSD1322_SPI_Write_CDDDhhhh,"ax",%progbits
 1064              		.align	1
 1065              		.global	_Z22SSD1322_SPI_Write_CDDDhhhh
 1066              		.syntax unified
 1067              		.thumb
 1068              		.thumb_func
 1070              	_Z22SSD1322_SPI_Write_CDDDhhhh:
 1071              		.fnstart
 1072              	.LVL67:
 1073              	.LFB177:
 125:Src/main.c    **** 
 126:Src/main.c    **** void SSD1322_SPI_Write_CDDD(uint8_t cmd, uint8_t D0, uint8_t D1, uint8_t D2) {
 1074              		.loc 1 126 78 is_stmt 1 view -0
 1075              		.cfi_startproc
 1076              		@ args = 0, pretend = 0, frame = 0
 1077              		@ frame_needed = 0, uses_anonymous_args = 0
 127:Src/main.c    **** 
 128:Src/main.c    ****     SSD1322_SPI_Write_C(cmd);
 1078              		.loc 1 128 5 view .LVU269
 1079              	.LBB96:
 1080              	.LBI96:
 108:Src/main.c    **** 
 1081              		.loc 1 108 6 view .LVU270
 1082              	.LBB97:
 110:Src/main.c    **** }
 1083              		.loc 1 110 5 view .LVU271
 1084              	.LBE97:
 1085              	.LBE96:
 126:Src/main.c    **** 
 1086              		.loc 1 126 78 is_stmt 0 view .LVU272
 1087 0000 70B5     		push	{r4, r5, r6, lr}
 1088              	.LCFI14:
 1089              		.cfi_def_cfa_offset 16
 1090              		.cfi_offset 4, -16
 1091              		.cfi_offset 5, -12
 1092              		.cfi_offset 6, -8
 1093              		.cfi_offset 14, -4
 126:Src/main.c    **** 
 1094              		.loc 1 126 78 view .LVU273
 1095 0002 0E46     		mov	r6, r1
 1096 0004 1546     		mov	r5, r2
 1097 0006 1C46     		mov	r4, r3
 1098              	.LBB99:
ARM GAS  /tmp/ccKGLILm.s 			page 29


 1099              	.LBB98:
 110:Src/main.c    **** }
 1100              		.loc 1 110 19 view .LVU274
 1101 0008 FFF7FEFF 		bl	_Z14Spi_Write_Datat
 1102              	.LVL68:
 110:Src/main.c    **** }
 1103              		.loc 1 110 19 view .LVU275
 1104              	.LBE98:
 1105              	.LBE99:
 129:Src/main.c    ****     SSD1322_SPI_Write_D(D0);
 1106              		.loc 1 129 5 is_stmt 1 view .LVU276
 1107              		.loc 1 129 24 is_stmt 0 view .LVU277
 1108 000c 3046     		mov	r0, r6
 1109 000e FFF7FEFF 		bl	_Z19SSD1322_SPI_Write_Dh
 1110              	.LVL69:
 130:Src/main.c    ****     SSD1322_SPI_Write_D(D1);
 1111              		.loc 1 130 5 is_stmt 1 view .LVU278
 1112              		.loc 1 130 24 is_stmt 0 view .LVU279
 1113 0012 2846     		mov	r0, r5
 1114 0014 FFF7FEFF 		bl	_Z19SSD1322_SPI_Write_Dh
 1115              	.LVL70:
 131:Src/main.c    ****     SSD1322_SPI_Write_D(D2);
 1116              		.loc 1 131 5 is_stmt 1 view .LVU280
 1117              		.loc 1 131 24 is_stmt 0 view .LVU281
 1118 0018 2046     		mov	r0, r4
 132:Src/main.c    **** }
 1119              		.loc 1 132 1 view .LVU282
 1120 001a BDE87040 		pop	{r4, r5, r6, lr}
 1121              	.LCFI15:
 1122              		.cfi_restore 14
 1123              		.cfi_restore 6
 1124              		.cfi_restore 5
 1125              		.cfi_restore 4
 1126              		.cfi_def_cfa_offset 0
 1127              	.LVL71:
 131:Src/main.c    ****     SSD1322_SPI_Write_D(D2);
 1128              		.loc 1 131 24 view .LVU283
 1129 001e FFF7FEBF 		b	_Z19SSD1322_SPI_Write_Dh
 1130              	.LVL72:
 131:Src/main.c    ****     SSD1322_SPI_Write_D(D2);
 1131              		.loc 1 131 24 view .LVU284
 1132              		.cfi_endproc
 1133              	.LFE177:
 1134              		.cantunwind
 1135              		.fnend
 1137              		.section	.text._Z23SSD1322_SPI_Write_CDDDDhhhhh,"ax",%progbits
 1138              		.align	1
 1139              		.global	_Z23SSD1322_SPI_Write_CDDDDhhhhh
 1140              		.syntax unified
 1141              		.thumb
 1142              		.thumb_func
 1144              	_Z23SSD1322_SPI_Write_CDDDDhhhhh:
 1145              		.fnstart
 1146              	.LVL73:
 1147              	.LFB178:
 133:Src/main.c    **** 
 134:Src/main.c    **** void SSD1322_SPI_Write_CDDDD(uint8_t cmd, uint8_t D0, uint8_t D1, uint8_t D2, uint8_t D3) {
ARM GAS  /tmp/ccKGLILm.s 			page 30


 1148              		.loc 1 134 91 is_stmt 1 view -0
 1149              		.cfi_startproc
 1150              		@ args = 4, pretend = 0, frame = 0
 1151              		@ frame_needed = 0, uses_anonymous_args = 0
 135:Src/main.c    **** 
 136:Src/main.c    ****     SSD1322_SPI_Write_C(cmd);
 1152              		.loc 1 136 5 view .LVU286
 1153              	.LBB100:
 1154              	.LBI100:
 108:Src/main.c    **** 
 1155              		.loc 1 108 6 view .LVU287
 1156              	.LBB101:
 110:Src/main.c    **** }
 1157              		.loc 1 110 5 view .LVU288
 1158              	.LBE101:
 1159              	.LBE100:
 134:Src/main.c    **** 
 1160              		.loc 1 134 91 is_stmt 0 view .LVU289
 1161 0000 F8B5     		push	{r3, r4, r5, r6, r7, lr}
 1162              	.LCFI16:
 1163              		.cfi_def_cfa_offset 24
 1164              		.cfi_offset 3, -24
 1165              		.cfi_offset 4, -20
 1166              		.cfi_offset 5, -16
 1167              		.cfi_offset 6, -12
 1168              		.cfi_offset 7, -8
 1169              		.cfi_offset 14, -4
 134:Src/main.c    **** 
 1170              		.loc 1 134 91 view .LVU290
 1171 0002 0E46     		mov	r6, r1
 1172 0004 1546     		mov	r5, r2
 1173 0006 1C46     		mov	r4, r3
 1174 0008 9DF81870 		ldrb	r7, [sp, #24]	@ zero_extendqisi2
 1175              	.LBB103:
 1176              	.LBB102:
 110:Src/main.c    **** }
 1177              		.loc 1 110 19 view .LVU291
 1178 000c FFF7FEFF 		bl	_Z14Spi_Write_Datat
 1179              	.LVL74:
 110:Src/main.c    **** }
 1180              		.loc 1 110 19 view .LVU292
 1181              	.LBE102:
 1182              	.LBE103:
 137:Src/main.c    ****     SSD1322_SPI_Write_D(D0);
 1183              		.loc 1 137 5 is_stmt 1 view .LVU293
 1184              		.loc 1 137 24 is_stmt 0 view .LVU294
 1185 0010 3046     		mov	r0, r6
 1186 0012 FFF7FEFF 		bl	_Z19SSD1322_SPI_Write_Dh
 1187              	.LVL75:
 138:Src/main.c    ****     SSD1322_SPI_Write_D(D1);
 1188              		.loc 1 138 5 is_stmt 1 view .LVU295
 1189              		.loc 1 138 24 is_stmt 0 view .LVU296
 1190 0016 2846     		mov	r0, r5
 1191 0018 FFF7FEFF 		bl	_Z19SSD1322_SPI_Write_Dh
 1192              	.LVL76:
 139:Src/main.c    ****     SSD1322_SPI_Write_D(D2);
 1193              		.loc 1 139 5 is_stmt 1 view .LVU297
ARM GAS  /tmp/ccKGLILm.s 			page 31


 1194              		.loc 1 139 24 is_stmt 0 view .LVU298
 1195 001c 2046     		mov	r0, r4
 1196 001e FFF7FEFF 		bl	_Z19SSD1322_SPI_Write_Dh
 1197              	.LVL77:
 140:Src/main.c    ****     SSD1322_SPI_Write_D(D3);
 1198              		.loc 1 140 5 is_stmt 1 view .LVU299
 1199              		.loc 1 140 24 is_stmt 0 view .LVU300
 1200 0022 3846     		mov	r0, r7
 141:Src/main.c    **** }
 1201              		.loc 1 141 1 view .LVU301
 1202 0024 BDE8F840 		pop	{r3, r4, r5, r6, r7, lr}
 1203              	.LCFI17:
 1204              		.cfi_restore 14
 1205              		.cfi_restore 7
 1206              		.cfi_restore 6
 1207              		.cfi_restore 5
 1208              		.cfi_restore 4
 1209              		.cfi_restore 3
 1210              		.cfi_def_cfa_offset 0
 1211              	.LVL78:
 140:Src/main.c    ****     SSD1322_SPI_Write_D(D3);
 1212              		.loc 1 140 24 view .LVU302
 1213 0028 FFF7FEBF 		b	_Z19SSD1322_SPI_Write_Dh
 1214              	.LVL79:
 1215              		.cfi_endproc
 1216              	.LFE178:
 1217              		.cantunwind
 1218              		.fnend
 1220              		.section	.text._Z10invertCharPm,"ax",%progbits
 1221              		.align	1
 1222              		.global	_Z10invertCharPm
 1223              		.syntax unified
 1224              		.thumb
 1225              		.thumb_func
 1227              	_Z10invertCharPm:
 1228              		.fnstart
 1229              	.LVL80:
 1230              	.LFB180:
 142:Src/main.c    **** 
 143:Src/main.c    **** 
 144:Src/main.c    **** /*
 145:Src/main.c    **** static uint8_t *u8x8_ssd1322_8to32(U8X8_UNUSED u8x8_t *u8x8, uint8_t *ptr)
 146:Src/main.c    **** {
 147:Src/main.c    ****   uint8_t v;
 148:Src/main.c    ****   uint8_t a,b;
 149:Src/main.c    ****   uint8_t i, j;
 150:Src/main.c    ****   uint8_t *dest;
 151:Src/main.c    **** 
 152:Src/main.c    ****   for( j = 0; j < 4; j++ )
 153:Src/main.c    ****   {
 154:Src/main.c    ****     dest = u8x8_ssd1322_to32_dest_buf;
 155:Src/main.c    ****     dest += j;
 156:Src/main.c    ****     a =*ptr;
 157:Src/main.c    ****     ptr++;
 158:Src/main.c    ****     b = *ptr;
 159:Src/main.c    ****     ptr++;
 160:Src/main.c    ****     for( i = 0; i < 8; i++ )
ARM GAS  /tmp/ccKGLILm.s 			page 32


 161:Src/main.c    ****     {
 162:Src/main.c    ****       v = 0;
 163:Src/main.c    ****       if ( a&1 ) v |= 0xf0;
 164:Src/main.c    ****       if ( b&1 ) v |= 0x0f;
 165:Src/main.c    ****       *dest = v;
 166:Src/main.c    ****       dest+=4;
 167:Src/main.c    ****       a >>= 1;
 168:Src/main.c    ****       b >>= 1;
 169:Src/main.c    ****     }
 170:Src/main.c    ****   }
 171:Src/main.c    **** 
 172:Src/main.c    ****   return u8x8_ssd1322_to32_dest_buf;
 173:Src/main.c    **** }
 174:Src/main.c    **** 
 175:Src/main.c    **** void SSD1322_SPI_DrawTile(uint8_t x_pos, uint8_t x_offset, uint8_t y_pos, uint8_t y_offset, uint8_t
 176:Src/main.c    **** {
 177:Src/main.c    ****     uint8_t x;
 178:Src/main.c    ****     uint8_t y, c;
 179:Src/main.c    ****     uint8_t *ptr;
 180:Src/main.c    **** 
 181:Src/main.c    ****     x = x_pos;
 182:Src/main.c    ****     x *= 2;		// only every 4th col can be addressed
 183:Src/main.c    ****     x += x_offset;
 184:Src/main.c    **** 
 185:Src/main.c    ****     y = y_pos;
 186:Src/main.c    ****     y *= 8;
 187:Src/main.c    **** 
 188:Src/main.c    ****     SSD1322_SPI_Write_CDD(0x75,y, y+7); // set row address, moved out of the loop (issue 302)
 189:Src/main.c    **** 
 190:Src/main.c    ****     do
 191:Src/main.c    ****     {
 192:Src/main.c    ****         c = cnt;
 193:Src/main.c    ****         ptr = Data;
 194:Src/main.c    **** 
 195:Src/main.c    ****         do
 196:Src/main.c    ****         {
 197:Src/main.c    ****             SSD1322_SPI_Write_CDD(0x15, x, x+1);	// set column address, start, end
 198:Src/main.c    ****             SSD1322_SPI_Write_C(0x5c);	            // write to ram
 199:Src/main.c    **** 
 200:Src/main.c    ****             u8x8_cad_SendData(u8x8, 32, u8x8_ssd1322_8to32(u8x8, ptr));
 201:Src/main.c    **** 
 202:Src/main.c    ****             ptr += 8;
 203:Src/main.c    ****             x += 2;
 204:Src/main.c    ****             c--;
 205:Src/main.c    ****         } while( c > 0 );
 206:Src/main.c    **** 
 207:Src/main.c    ****         //x += 2;
 208:Src/main.c    ****         arg_int--;
 209:Src/main.c    ****     } while( arg_int > 0 );
 210:Src/main.c    **** }
 211:Src/main.c    **** */
 212:Src/main.c    **** 
 213:Src/main.c    **** union PixU8_t {
 214:Src/main.c    ****     struct {
 215:Src/main.c    ****         uint8_t pix0:4;
 216:Src/main.c    ****         uint8_t pix1:4;
 217:Src/main.c    ****         uint8_t pix2:4;
ARM GAS  /tmp/ccKGLILm.s 			page 33


 218:Src/main.c    ****         uint8_t pix3:4;
 219:Src/main.c    ****     };
 220:Src/main.c    ****     uint8_t Data[2];
 221:Src/main.c    ****     uint16_t DataW;
 222:Src/main.c    **** };
 223:Src/main.c    **** 
 224:Src/main.c    **** 
 225:Src/main.c    **** const uint16_t OLED_Data_Length = 256*64/4;
 226:Src/main.c    **** 
 227:Src/main.c    **** PixU8_t OLED_Data[OLED_Data_Length] = {0};
 228:Src/main.c    **** 
 229:Src/main.c    **** static void write_char(const uint8_t x_pos, const uint8_t y_pos, const uint32_t *Char) {
 230:Src/main.c    ****     uint8_t char_pos = 0;
 231:Src/main.c    ****     // –Т—Л–≤–Њ–і–Є–Љ —Б–Є–Љ–≤–Њ–ї
 232:Src/main.c    ****     for(uint8_t i=0;i<8;i++) {// i - symbol height
 233:Src/main.c    ****         uint16_t pos = (256/4)*(7-i+y_pos)+(256/4-x_pos);
 234:Src/main.c    ****         OLED_Data[pos+1].DataW = Char[char_pos]>>16;
 235:Src/main.c    ****         OLED_Data[pos].DataW = Char[char_pos++];
 236:Src/main.c    ****     }
 237:Src/main.c    **** }
 238:Src/main.c    **** 
 239:Src/main.c    **** void invertChar(uint32_t *character){
 1231              		.loc 1 239 37 is_stmt 1 view -0
 1232              		.cfi_startproc
 1233              		@ args = 0, pretend = 0, frame = 0
 1234              		@ frame_needed = 0, uses_anonymous_args = 0
 1235              		@ link register save eliminated.
 240:Src/main.c    ****     for(int i = 0; i < 8; i++){ //invert
 1236              		.loc 1 240 5 view .LVU304
 1237              	.LBB104:
 1238              		.loc 1 240 22 discriminator 1 view .LVU305
 1239 0000 031F     		subs	r3, r0, #4
 1240              	.LBE104:
 239:Src/main.c    ****     for(int i = 0; i < 8; i++){ //invert
 1241              		.loc 1 239 37 is_stmt 0 view .LVU306
 1242 0002 1A46     		mov	r2, r3
 1243 0004 1C30     		adds	r0, r0, #28
 1244              	.LVL81:
 1245              	.L49:
 1246              	.LBB105:
 241:Src/main.c    ****         character[i] ^= 0xFFFFFFFF;
 1247              		.loc 1 241 9 is_stmt 1 view .LVU307
 1248              		.loc 1 241 22 is_stmt 0 view .LVU308
 1249 0006 52F8041F 		ldr	r1, [r2, #4]!
 1250 000a C943     		mvns	r1, r1
 240:Src/main.c    ****     for(int i = 0; i < 8; i++){ //invert
 1251              		.loc 1 240 22 discriminator 1 view .LVU309
 1252 000c 8242     		cmp	r2, r0
 1253              		.loc 1 241 22 view .LVU310
 1254 000e 1160     		str	r1, [r2]
 240:Src/main.c    ****     for(int i = 0; i < 8; i++){ //invert
 1255              		.loc 1 240 5 is_stmt 1 discriminator 3 view .LVU311
 240:Src/main.c    ****     for(int i = 0; i < 8; i++){ //invert
 1256              		.loc 1 240 22 discriminator 1 view .LVU312
 1257 0010 F9D1     		bne	.L49
 1258 0012 074A     		ldr	r2, .L53
 1259              	.L50:
ARM GAS  /tmp/ccKGLILm.s 			page 34


 1260              	.LVL82:
 240:Src/main.c    ****     for(int i = 0; i < 8; i++){ //invert
 1261              		.loc 1 240 22 is_stmt 0 discriminator 1 view .LVU313
 1262              	.LBE105:
 1263              	.LBB106:
 1264              	.LBB107:
 1265              	.LBB108:
 1266              	.LBB109:
 233:Src/main.c    ****         OLED_Data[pos+1].DataW = Char[char_pos]>>16;
 1267              		.loc 1 233 9 is_stmt 1 view .LVU314
 234:Src/main.c    ****         OLED_Data[pos].DataW = Char[char_pos++];
 1268              		.loc 1 234 9 view .LVU315
 234:Src/main.c    ****         OLED_Data[pos].DataW = Char[char_pos++];
 1269              		.loc 1 234 48 is_stmt 0 view .LVU316
 1270 0014 53F8041F 		ldr	r1, [r3, #4]!
 1271              	.LVL83:
 234:Src/main.c    ****         OLED_Data[pos].DataW = Char[char_pos++];
 1272              		.loc 1 234 48 view .LVU317
 1273 0018 090C     		lsrs	r1, r1, #16
 234:Src/main.c    ****         OLED_Data[pos].DataW = Char[char_pos++];
 1274              		.loc 1 234 32 view .LVU318
 1275 001a A2F8E814 		strh	r1, [r2, #1256]	@ movhi
 235:Src/main.c    ****     }
 1276              		.loc 1 235 9 is_stmt 1 view .LVU319
 1277              	.LVL84:
 235:Src/main.c    ****     }
 1278              		.loc 1 235 30 is_stmt 0 view .LVU320
 1279 001e 1968     		ldr	r1, [r3]
 1280 0020 A2F8E614 		strh	r1, [r2, #1254]	@ movhi
 1281              	.LBE109:
 232:Src/main.c    ****         uint16_t pos = (256/4)*(7-i+y_pos)+(256/4-x_pos);
 1282              		.loc 1 232 5 is_stmt 1 discriminator 3 view .LVU321
 1283              	.LVL85:
 232:Src/main.c    ****         uint16_t pos = (256/4)*(7-i+y_pos)+(256/4-x_pos);
 1284              		.loc 1 232 22 discriminator 1 view .LVU322
 1285 0024 8342     		cmp	r3, r0
 1286 0026 A2F18002 		sub	r2, r2, #128
 1287 002a F3D1     		bne	.L50
 1288              	.LBE108:
 1289              	.LBE107:
 1290              	.LBE106:
 242:Src/main.c    ****     }
 243:Src/main.c    **** 
 244:Src/main.c    ****     write_char(13, 2, character);
 245:Src/main.c    **** }
 1291              		.loc 1 245 1 is_stmt 0 view .LVU323
 1292 002c 7047     		bx	lr
 1293              	.L54:
 1294 002e 00BF     		.align	2
 1295              	.L53:
 1296 0030 00000000 		.word	OLED_Data
 1297              		.cfi_endproc
 1298              	.LFE180:
 1299              		.cantunwind
 1300              		.fnend
 1302              		.section	.text.startup.main,"ax",%progbits
 1303              		.align	1
ARM GAS  /tmp/ccKGLILm.s 			page 35


 1304              		.global	main
 1305              		.syntax unified
 1306              		.thumb
 1307              		.thumb_func
 1309              	main:
 1310              		.fnstart
 1311              	.LFB181:
 246:Src/main.c    **** 
 247:Src/main.c    **** int main()
 248:Src/main.c    **** {
 1312              		.loc 1 248 1 is_stmt 1 view -0
 1313              		.cfi_startproc
 1314              		@ args = 0, pretend = 0, frame = 8224
 1315              		@ frame_needed = 0, uses_anonymous_args = 0
 249:Src/main.c    **** 
 250:Src/main.c    **** // PortInit:
 251:Src/main.c    **** 
 252:Src/main.c    ****     // PB1 -- –Ы–µ–≤–Њ
 253:Src/main.c    ****     // PB7 -- –Я—А–∞–≤–Њ
 254:Src/main.c    **** 
 255:Src/main.c    ****     // PB10 -- –Ъ–љ–Њ–њ–Ї–∞ –Т–≤–µ—А—Е
 256:Src/main.c    **** 
 257:Src/main.c    ****     RCC->AHB2ENR |= RCC_AHB2ENR_GPIOBEN;     /* –≤–Ї–ї—О—З–∞–µ–Љ —В–∞–Ї—В–Є—А–Њ–≤–∞–љ–Є–µ PortB */
 1316              		.loc 1 257 5 view .LVU325
 1317              		.loc 1 257 10 is_stmt 0 view .LVU326
 1318 0000 714B     		ldr	r3, .L61
 1319 0002 DA6C     		ldr	r2, [r3, #76]
 1320              		.loc 1 257 18 view .LVU327
 1321 0004 42F00202 		orr	r2, r2, #2
 248:Src/main.c    **** 
 1322              		.loc 1 248 1 view .LVU328
 1323 0008 10B5     		push	{r4, lr}
 1324              	.LCFI18:
 1325              		.cfi_def_cfa_offset 8
 1326              		.cfi_offset 4, -8
 1327              		.cfi_offset 14, -4
 1328              		.loc 1 257 18 view .LVU329
 1329 000a DA64     		str	r2, [r3, #76]
 258:Src/main.c    ****     RCC->AHB2ENR |= RCC_AHB2ENR_GPIOCEN;
 1330              		.loc 1 258 5 is_stmt 1 view .LVU330
 1331              		.loc 1 258 10 is_stmt 0 view .LVU331
 1332 000c DA6C     		ldr	r2, [r3, #76]
 1333              		.loc 1 258 18 view .LVU332
 1334 000e 42F00402 		orr	r2, r2, #4
 1335 0012 DA64     		str	r2, [r3, #76]
 259:Src/main.c    ****     /* –љ–∞—Б—В—А–∞–Є–≤–∞–µ–Љ GPIO1 */
 260:Src/main.c    ****     // GPIOB->MODER |=  GPIO_MODER_MODER1_0;    /* MODE1=01 */
 261:Src/main.c    ****     // GPIOB->MODER &= ~GPIO_MODER_MODER1_1;    /* MODE1=01 */
 262:Src/main.c    ****     GPIOB->MODER = (GPIOB->MODER & ~GPIO_MODER_MODER1) | GPIO_MODER_MODER1_0;    /* MODE1=01 */
 1336              		.loc 1 262 5 is_stmt 1 view .LVU333
 1337              		.loc 1 262 28 is_stmt 0 view .LVU334
 1338 0014 6D4B     		ldr	r3, .L61+4
 1339 0016 1A68     		ldr	r2, [r3]
 1340              		.loc 1 262 34 view .LVU335
 1341 0018 22F00C02 		bic	r2, r2, #12
 1342              		.loc 1 262 56 view .LVU336
 1343 001c 42F00402 		orr	r2, r2, #4
ARM GAS  /tmp/ccKGLILm.s 			page 36


 1344              		.loc 1 262 18 view .LVU337
 1345 0020 1A60     		str	r2, [r3]
 263:Src/main.c    ****     GPIOB->MODER = (GPIOB->MODER & ~GPIO_MODER_MODER7) | GPIO_MODER_MODER7_0;    /* MODE7=01 */ //s
 1346              		.loc 1 263 5 is_stmt 1 view .LVU338
 1347              		.loc 1 263 28 is_stmt 0 view .LVU339
 1348 0022 1A68     		ldr	r2, [r3]
 1349              		.loc 1 263 34 view .LVU340
 1350 0024 22F44042 		bic	r2, r2, #49152
 1351              		.loc 1 263 56 view .LVU341
 1352 0028 42F48042 		orr	r2, r2, #16384
 1353              		.loc 1 263 18 view .LVU342
 1354 002c 1A60     		str	r2, [r3]
 264:Src/main.c    **** 
 265:Src/main.c    ****     /*
 266:Src/main.c    ****         00: Input mode
 267:Src/main.c    ****         01: General purpose output mode
 268:Src/main.c    ****         10: Alternate function mode
 269:Src/main.c    ****         11: Analog mode (reset state)
 270:Src/main.c    ****     */
 271:Src/main.c    **** 
 272:Src/main.c    ****     /* –љ–∞—Б—В—А–∞–Є–≤–∞–µ–Љ GPI10 */
 273:Src/main.c    ****     /*
 274:Src/main.c    ****     GPIOB->MODER &= ~GPIO_MODER_MODER10;     // MODE10=00
 275:Src/main.c    ****     GPIOB->PUPDR |=  GPIO_PUPDR_PUPD10_0;    // PUPD10=01
 276:Src/main.c    ****     */
 277:Src/main.c    ****     joystickInit();
 1355              		.loc 1 277 5 is_stmt 1 view .LVU343
 1356              	.LBB133:
 1357              	.LBI133:
  59:Src/main.c    **** /* –љ–∞—Б—В—А–∞–Є–≤–∞–µ–Љ GPI10 */
 1358              		.loc 1 59 20 view .LVU344
 1359              	.LBB134:
  61:Src/main.c    ****     GPIOB->PUPDR |=  GPIO_PUPDR_PUPD10_0;                    /* PUPD10=01 */
 1360              		.loc 1 61 5 view .LVU345
  61:Src/main.c    ****     GPIOB->PUPDR |=  GPIO_PUPDR_PUPD10_0;                    /* PUPD10=01 */
 1361              		.loc 1 61 12 is_stmt 0 view .LVU346
 1362 002e 1A68     		ldr	r2, [r3]
  61:Src/main.c    ****     GPIOB->PUPDR |=  GPIO_PUPDR_PUPD10_0;                    /* PUPD10=01 */
 1363              		.loc 1 61 18 view .LVU347
 1364 0030 22F44012 		bic	r2, r2, #3145728
 1365 0034 1A60     		str	r2, [r3]
  62:Src/main.c    **** 
 1366              		.loc 1 62 5 is_stmt 1 view .LVU348
  62:Src/main.c    **** 
 1367              		.loc 1 62 12 is_stmt 0 view .LVU349
 1368 0036 DA68     		ldr	r2, [r3, #12]
  62:Src/main.c    **** 
 1369              		.loc 1 62 18 view .LVU350
 1370 0038 42F48012 		orr	r2, r2, #1048576
 1371 003c DA60     		str	r2, [r3, #12]
  64:Src/main.c    ****     GPIOB->PUPDR |=  GPIO_PUPDR_PUPD2_0;
 1372              		.loc 1 64 5 is_stmt 1 view .LVU351
  64:Src/main.c    ****     GPIOB->PUPDR |=  GPIO_PUPDR_PUPD2_0;
 1373              		.loc 1 64 12 is_stmt 0 view .LVU352
 1374 003e 1A68     		ldr	r2, [r3]
  64:Src/main.c    ****     GPIOB->PUPDR |=  GPIO_PUPDR_PUPD2_0;
 1375              		.loc 1 64 18 view .LVU353
ARM GAS  /tmp/ccKGLILm.s 			page 37


 1376 0040 22F03002 		bic	r2, r2, #48
 1377 0044 1A60     		str	r2, [r3]
  65:Src/main.c    **** 
 1378              		.loc 1 65 5 is_stmt 1 view .LVU354
  65:Src/main.c    **** 
 1379              		.loc 1 65 12 is_stmt 0 view .LVU355
 1380 0046 DA68     		ldr	r2, [r3, #12]
  65:Src/main.c    **** 
 1381              		.loc 1 65 18 view .LVU356
 1382 0048 42F01002 		orr	r2, r2, #16
 1383 004c DA60     		str	r2, [r3, #12]
  67:Src/main.c    ****     GPIOC->PUPDR |=  GPIO_PUPDR_PUPD4_0;
 1384              		.loc 1 67 5 is_stmt 1 view .LVU357
  67:Src/main.c    ****     GPIOC->PUPDR |=  GPIO_PUPDR_PUPD4_0;
 1385              		.loc 1 67 12 is_stmt 0 view .LVU358
 1386 004e D3F80024 		ldr	r2, [r3, #1024]
  67:Src/main.c    ****     GPIOC->PUPDR |=  GPIO_PUPDR_PUPD4_0;
 1387              		.loc 1 67 18 view .LVU359
 1388 0052 22F44072 		bic	r2, r2, #768
 1389 0056 C3F80024 		str	r2, [r3, #1024]
  68:Src/main.c    **** 
 1390              		.loc 1 68 5 is_stmt 1 view .LVU360
  68:Src/main.c    **** 
 1391              		.loc 1 68 12 is_stmt 0 view .LVU361
 1392 005a D3F80C24 		ldr	r2, [r3, #1036]
  68:Src/main.c    **** 
 1393              		.loc 1 68 18 view .LVU362
 1394 005e 42F48072 		orr	r2, r2, #256
 1395 0062 C3F80C24 		str	r2, [r3, #1036]
  70:Src/main.c    ****     GPIOC->PUPDR |=  GPIO_PUPDR_PUPD5_0;
 1396              		.loc 1 70 5 is_stmt 1 view .LVU363
  70:Src/main.c    ****     GPIOC->PUPDR |=  GPIO_PUPDR_PUPD5_0;
 1397              		.loc 1 70 12 is_stmt 0 view .LVU364
 1398 0066 D3F80024 		ldr	r2, [r3, #1024]
  70:Src/main.c    ****     GPIOC->PUPDR |=  GPIO_PUPDR_PUPD5_0;
 1399              		.loc 1 70 18 view .LVU365
 1400 006a 22F44062 		bic	r2, r2, #3072
 1401 006e C3F80024 		str	r2, [r3, #1024]
  71:Src/main.c    **** 
 1402              		.loc 1 71 5 is_stmt 1 view .LVU366
  71:Src/main.c    **** 
 1403              		.loc 1 71 12 is_stmt 0 view .LVU367
 1404 0072 D3F80C24 		ldr	r2, [r3, #1036]
  71:Src/main.c    **** 
 1405              		.loc 1 71 18 view .LVU368
 1406 0076 42F48062 		orr	r2, r2, #1024
 1407 007a C3F80C24 		str	r2, [r3, #1036]
  73:Src/main.c    ****     GPIOC->PUPDR |=  GPIO_PUPDR_PUPD13_0;
 1408              		.loc 1 73 5 is_stmt 1 view .LVU369
  73:Src/main.c    ****     GPIOC->PUPDR |=  GPIO_PUPDR_PUPD13_0;
 1409              		.loc 1 73 12 is_stmt 0 view .LVU370
 1410 007e D3F80024 		ldr	r2, [r3, #1024]
  73:Src/main.c    ****     GPIOC->PUPDR |=  GPIO_PUPDR_PUPD13_0;
 1411              		.loc 1 73 18 view .LVU371
 1412 0082 22F04062 		bic	r2, r2, #201326592
 1413 0086 C3F80024 		str	r2, [r3, #1024]
  74:Src/main.c    **** 
ARM GAS  /tmp/ccKGLILm.s 			page 38


 1414              		.loc 1 74 5 is_stmt 1 view .LVU372
  74:Src/main.c    **** 
 1415              		.loc 1 74 12 is_stmt 0 view .LVU373
 1416 008a D3F80C24 		ldr	r2, [r3, #1036]
 1417              	.LBE134:
 1418              	.LBE133:
 248:Src/main.c    **** 
 1419              		.loc 1 248 1 view .LVU374
 1420 008e ADF5005D 		sub	sp, sp, #8192
 1421              	.LCFI19:
 1422              		.cfi_def_cfa_offset 8200
 1423 0092 88B0     		sub	sp, sp, #32
 1424              	.LCFI20:
 1425              		.cfi_def_cfa_offset 8232
 1426              	.LBB136:
 1427              	.LBB135:
  74:Src/main.c    **** 
 1428              		.loc 1 74 18 view .LVU375
 1429 0094 42F08062 		orr	r2, r2, #67108864
 1430 0098 C3F80C24 		str	r2, [r3, #1036]
 1431              	.LBE135:
 1432              	.LBE136:
 278:Src/main.c    **** 
 279:Src/main.c    ****     /*
 280:Src/main.c    ****         00: No pull-up, pull-down
 281:Src/main.c    ****         01: Pull-up
 282:Src/main.c    ****         10: Pull-down
 283:Src/main.c    ****         11: Reserved
 284:Src/main.c    ****     */
 285:Src/main.c    **** 
 286:Src/main.c    **** #define TESTn
 287:Src/main.c    **** 
 288:Src/main.c    **** #ifndef TEST
 289:Src/main.c    **** 
 290:Src/main.c    ****     //EXPERIMANTAL \/----------------------------------------------\/
 291:Src/main.c    **** 
 292:Src/main.c    ****     SPI_Connection connection;              //Create SPI2 connection object
 1433              		.loc 1 292 5 is_stmt 1 view .LVU376
 1434              		.loc 1 292 20 is_stmt 0 view .LVU377
 1435 009c 6846     		mov	r0, sp
 1436 009e FFF7FEFF 		bl	_ZN14SPI_ConnectionC1Ev
 1437              	.LVL86:
 293:Src/main.c    ****     ScreenControl screen(&connection);      //Create Screen control handler and bind to SPI2 connec
 1438              		.loc 1 293 5 is_stmt 1 view .LVU378
 1439              	.LBB137:
 1440              	.LBI137:
  54:Src/include/ScreenControl.h ****         connection = c;
 1441              		.loc 4 54 5 view .LVU379
 1442              	.LBB138:
 1443              	.LBB139:
  54:Src/include/ScreenControl.h ****         connection = c;
 1444              		.loc 4 54 37 is_stmt 0 view .LVU380
 1445 00a2 0423     		movs	r3, #4
 1446 00a4 4FF40052 		mov	r2, #8192
 1447 00a8 0021     		movs	r1, #0
 1448 00aa 0DF11E00 		add	r0, sp, #30
 1449 00ae 8DF80830 		strb	r3, [sp, #8]
ARM GAS  /tmp/ccKGLILm.s 			page 39


 1450 00b2 ADF81C20 		strh	r2, [sp, #28]	@ movhi
 1451 00b6 FFF7FEFF 		bl	memset
 1452              	.LVL87:
 1453 00ba 0DF58153 		add	r3, sp, #4128
 1454 00be 8022     		movs	r2, #128
 1455 00c0 83F8FE2F 		strb	r2, [r3, #4094]
 1456 00c4 4022     		movs	r2, #64
 1457 00c6 83F8FF2F 		strb	r2, [r3, #4095]
  55:Src/include/ScreenControl.h **** 
 1458              		.loc 4 55 9 is_stmt 1 view .LVU381
  59:Src/include/ScreenControl.h ****         page_1[1] = &l2;
 1459              		.loc 4 59 19 is_stmt 0 view .LVU382
 1460 00ca 414B     		ldr	r3, .L61+8
 1461 00cc 0393     		str	r3, [sp, #12]
  60:Src/include/ScreenControl.h ****         page_1[2] = &l3;
 1462              		.loc 4 60 19 view .LVU383
 1463 00ce 414B     		ldr	r3, .L61+12
 1464 00d0 0493     		str	r3, [sp, #16]
  61:Src/include/ScreenControl.h ****         page_1[3] = &l4;
 1465              		.loc 4 61 19 view .LVU384
 1466 00d2 414B     		ldr	r3, .L61+16
 1467 00d4 0593     		str	r3, [sp, #20]
 1468              	.LBE139:
 1469              	.LBE138:
 1470              	.LBE137:
 294:Src/main.c    **** 
 295:Src/main.c    ****     connection.SSD1322_write_CD(0xfd, 0x12);                 // unlock
 1471              		.loc 1 295 32 view .LVU385
 1472 00d6 1221     		movs	r1, #18
 1473              	.LBB144:
 1474              	.LBB142:
 1475              	.LBB140:
  62:Src/include/ScreenControl.h **** 
 1476              		.loc 4 62 19 view .LVU386
 1477 00d8 404B     		ldr	r3, .L61+20
 1478 00da 0693     		str	r3, [sp, #24]
 1479              	.LBE140:
 1480              	.LBE142:
 1481              	.LBE144:
 1482              		.loc 1 295 32 view .LVU387
 1483 00dc FD20     		movs	r0, #253
 1484              	.LBB145:
 1485              	.LBB143:
 1486              	.LBB141:
  55:Src/include/ScreenControl.h **** 
 1487              		.loc 4 55 20 view .LVU388
 1488 00de CDF804D0 		str	sp, [sp, #4]
  59:Src/include/ScreenControl.h ****         page_1[1] = &l2;
 1489              		.loc 4 59 9 is_stmt 1 view .LVU389
  60:Src/include/ScreenControl.h ****         page_1[2] = &l3;
 1490              		.loc 4 60 9 view .LVU390
  61:Src/include/ScreenControl.h ****         page_1[3] = &l4;
 1491              		.loc 4 61 9 view .LVU391
  62:Src/include/ScreenControl.h **** 
 1492              		.loc 4 62 9 view .LVU392
 1493              	.LVL88:
  62:Src/include/ScreenControl.h **** 
ARM GAS  /tmp/ccKGLILm.s 			page 40


 1494              		.loc 4 62 9 is_stmt 0 view .LVU393
 1495              	.LBE141:
 1496              	.LBE143:
 1497              	.LBE145:
 1498              		.loc 1 295 5 is_stmt 1 view .LVU394
 1499              		.loc 1 295 32 is_stmt 0 view .LVU395
 1500 00e2 FFF7FEFF 		bl	_ZN14SPI_Connection16SSD1322_write_CDEhh.isra.0
 1501              	.LVL89:
 296:Src/main.c    ****     connection.SSD1322_write_C(0xae);                        // display off
 1502              		.loc 1 296 5 is_stmt 1 view .LVU396
 1503              	.LBB146:
 1504              	.LBI146:
  68:Src/include/SPI_Connection.h ****         write_data(cmd);
 1505              		.loc 3 68 10 view .LVU397
 1506              	.LBB147:
  69:Src/include/SPI_Connection.h ****     }
 1507              		.loc 3 69 9 view .LVU398
  69:Src/include/SPI_Connection.h ****     }
 1508              		.loc 3 69 19 is_stmt 0 view .LVU399
 1509 00e6 AE20     		movs	r0, #174
 1510 00e8 FFF7FEFF 		bl	_ZN14SPI_Connection10write_dataEt.isra.0
 1511              	.LVL90:
  69:Src/include/SPI_Connection.h ****     }
 1512              		.loc 3 69 19 view .LVU400
 1513              	.LBE147:
 1514              	.LBE146:
 297:Src/main.c    ****     connection.SSD1322_write_CD(0xb3, 0x91);                 // set display clock divide ratio/osci
 1515              		.loc 1 297 5 is_stmt 1 view .LVU401
 1516              		.loc 1 297 32 is_stmt 0 view .LVU402
 1517 00ec 9121     		movs	r1, #145
 1518 00ee B320     		movs	r0, #179
 1519 00f0 FFF7FEFF 		bl	_ZN14SPI_Connection16SSD1322_write_CDEhh.isra.0
 1520              	.LVL91:
 298:Src/main.c    ****     connection.SSD1322_write_CD(0xca, 0x3f);                 // multiplex ratio 1/64 Duty (0x0F~0x3
 1521              		.loc 1 298 5 is_stmt 1 view .LVU403
 1522              		.loc 1 298 32 is_stmt 0 view .LVU404
 1523 00f4 3F21     		movs	r1, #63
 1524 00f6 CA20     		movs	r0, #202
 1525 00f8 FFF7FEFF 		bl	_ZN14SPI_Connection16SSD1322_write_CDEhh.isra.0
 1526              	.LVL92:
 299:Src/main.c    ****     connection.SSD1322_write_CD(0xa2, 0x00);                 // display offset, shift mapping ram c
 1527              		.loc 1 299 5 is_stmt 1 view .LVU405
 1528              		.loc 1 299 32 is_stmt 0 view .LVU406
 1529 00fc 0021     		movs	r1, #0
 1530 00fe A220     		movs	r0, #162
 1531 0100 FFF7FEFF 		bl	_ZN14SPI_Connection16SSD1322_write_CDEhh.isra.0
 1532              	.LVL93:
 300:Src/main.c    ****     connection.SSD1322_write_CD(0xa1, 0x00);                 // display start line
 1533              		.loc 1 300 5 is_stmt 1 view .LVU407
 1534              		.loc 1 300 32 is_stmt 0 view .LVU408
 1535 0104 0021     		movs	r1, #0
 1536 0106 A120     		movs	r0, #161
 1537 0108 FFF7FEFF 		bl	_ZN14SPI_Connection16SSD1322_write_CDEhh.isra.0
 1538              	.LVL94:
 301:Src/main.c    ****     // SSD1322_SPI_Write_CDD(0xa0, 0x14, 0x11);           // Set Re-Map / Dual COM Line Mode
 302:Src/main.c    ****     //SSD1322_SPI_Write_CDD(0xa0, 0x06, 0x11);          // Set Re-Map / Dual COM Line Mode
 303:Src/main.c    ****     connection.SSD1322_write_C2D(0xa0, 0x02, 0x11);          // Set Re-Map / Dual COM Line Mode
ARM GAS  /tmp/ccKGLILm.s 			page 41


 1539              		.loc 1 303 5 is_stmt 1 view .LVU409
 1540              		.loc 1 303 33 is_stmt 0 view .LVU410
 1541 010c 1122     		movs	r2, #17
 1542 010e 0221     		movs	r1, #2
 1543 0110 A020     		movs	r0, #160
 1544 0112 FFF7FEFF 		bl	_ZN14SPI_Connection17SSD1322_write_C2DEhhh.isra.0
 1545              	.LVL95:
 304:Src/main.c    ****     connection.SSD1322_write_CD(0xab, 0x01);                 // Enable Internal VDD Regulator
 1546              		.loc 1 304 5 is_stmt 1 view .LVU411
 1547              		.loc 1 304 32 is_stmt 0 view .LVU412
 1548 0116 0121     		movs	r1, #1
 1549 0118 AB20     		movs	r0, #171
 1550 011a FFF7FEFF 		bl	_ZN14SPI_Connection16SSD1322_write_CDEhh.isra.0
 1551              	.LVL96:
 305:Src/main.c    ****     connection.SSD1322_write_C2D(0xb4, 0xa0, 0x05|0xfd);    // Display Enhancement A
 1552              		.loc 1 305 5 is_stmt 1 view .LVU413
 1553              		.loc 1 305 33 is_stmt 0 view .LVU414
 1554 011e FD22     		movs	r2, #253
 1555 0120 A021     		movs	r1, #160
 1556 0122 B420     		movs	r0, #180
 1557 0124 FFF7FEFF 		bl	_ZN14SPI_Connection17SSD1322_write_C2DEhhh.isra.0
 1558              	.LVL97:
 306:Src/main.c    ****     connection.SSD1322_write_CD(0xc1, 0xAf);                 // contrast
 1559              		.loc 1 306 5 is_stmt 1 view .LVU415
 1560              		.loc 1 306 32 is_stmt 0 view .LVU416
 1561 0128 AF21     		movs	r1, #175
 1562 012a C120     		movs	r0, #193
 1563 012c FFF7FEFF 		bl	_ZN14SPI_Connection16SSD1322_write_CDEhh.isra.0
 1564              	.LVL98:
 307:Src/main.c    ****     connection.SSD1322_write_CD(0xc7, 0x0f);                 // Set Scale Factor of Segment Output 
 1565              		.loc 1 307 5 is_stmt 1 view .LVU417
 1566              		.loc 1 307 32 is_stmt 0 view .LVU418
 1567 0130 0F21     		movs	r1, #15
 1568 0132 C720     		movs	r0, #199
 1569 0134 FFF7FEFF 		bl	_ZN14SPI_Connection16SSD1322_write_CDEhh.isra.0
 1570              	.LVL99:
 308:Src/main.c    ****     connection.SSD1322_write_C(0xb9);                        // linear grayscale
 1571              		.loc 1 308 5 is_stmt 1 view .LVU419
 1572              	.LBB148:
 1573              	.LBI148:
  68:Src/include/SPI_Connection.h ****         write_data(cmd);
 1574              		.loc 3 68 10 view .LVU420
 1575              	.LBB149:
  69:Src/include/SPI_Connection.h ****     }
 1576              		.loc 3 69 9 view .LVU421
  69:Src/include/SPI_Connection.h ****     }
 1577              		.loc 3 69 19 is_stmt 0 view .LVU422
 1578 0138 B920     		movs	r0, #185
 1579 013a FFF7FEFF 		bl	_ZN14SPI_Connection10write_dataEt.isra.0
 1580              	.LVL100:
  69:Src/include/SPI_Connection.h ****     }
 1581              		.loc 3 69 19 view .LVU423
 1582              	.LBE149:
 1583              	.LBE148:
 309:Src/main.c    ****     connection.SSD1322_write_CD(0xb1, 0xe2);                 // Phase 1 (Reset) & Phase 2 (Pre-Char
 1584              		.loc 1 309 5 is_stmt 1 view .LVU424
 1585              		.loc 1 309 32 is_stmt 0 view .LVU425
ARM GAS  /tmp/ccKGLILm.s 			page 42


 1586 013e E221     		movs	r1, #226
 1587 0140 B120     		movs	r0, #177
 1588 0142 FFF7FEFF 		bl	_ZN14SPI_Connection16SSD1322_write_CDEhh.isra.0
 1589              	.LVL101:
 310:Src/main.c    ****     connection.SSD1322_write_C2D(0xd1, 0x82|0x20, 0x20);   // Display Enhancement B
 1590              		.loc 1 310 5 is_stmt 1 view .LVU426
 1591              		.loc 1 310 33 is_stmt 0 view .LVU427
 1592 0146 2022     		movs	r2, #32
 1593 0148 A221     		movs	r1, #162
 1594 014a D120     		movs	r0, #209
 1595 014c FFF7FEFF 		bl	_ZN14SPI_Connection17SSD1322_write_C2DEhhh.isra.0
 1596              	.LVL102:
 311:Src/main.c    ****     connection.SSD1322_write_CD(0xbb, 0x1f);                 // precharge  voltage
 1597              		.loc 1 311 5 is_stmt 1 view .LVU428
 1598              		.loc 1 311 32 is_stmt 0 view .LVU429
 1599 0150 1F21     		movs	r1, #31
 1600 0152 BB20     		movs	r0, #187
 1601 0154 FFF7FEFF 		bl	_ZN14SPI_Connection16SSD1322_write_CDEhh.isra.0
 1602              	.LVL103:
 312:Src/main.c    ****     connection.SSD1322_write_CD(0xb6, 0x08);                 // precharge  period
 1603              		.loc 1 312 5 is_stmt 1 view .LVU430
 1604              		.loc 1 312 32 is_stmt 0 view .LVU431
 1605 0158 0821     		movs	r1, #8
 1606 015a B620     		movs	r0, #182
 1607 015c FFF7FEFF 		bl	_ZN14SPI_Connection16SSD1322_write_CDEhh.isra.0
 1608              	.LVL104:
 313:Src/main.c    ****     connection.SSD1322_write_CD(0xbe, 0x07);                 // vcomh
 1609              		.loc 1 313 5 is_stmt 1 view .LVU432
 1610              		.loc 1 313 32 is_stmt 0 view .LVU433
 1611 0160 0721     		movs	r1, #7
 1612 0162 BE20     		movs	r0, #190
 1613 0164 FFF7FEFF 		bl	_ZN14SPI_Connection16SSD1322_write_CDEhh.isra.0
 1614              	.LVL105:
 314:Src/main.c    ****     connection.SSD1322_write_C(0xa6);                        // normal display
 1615              		.loc 1 314 5 is_stmt 1 view .LVU434
 1616              	.LBB150:
 1617              	.LBI150:
  68:Src/include/SPI_Connection.h ****         write_data(cmd);
 1618              		.loc 3 68 10 view .LVU435
 1619              	.LBB151:
  69:Src/include/SPI_Connection.h ****     }
 1620              		.loc 3 69 9 view .LVU436
  69:Src/include/SPI_Connection.h ****     }
 1621              		.loc 3 69 19 is_stmt 0 view .LVU437
 1622 0168 A620     		movs	r0, #166
 1623 016a FFF7FEFF 		bl	_ZN14SPI_Connection10write_dataEt.isra.0
 1624              	.LVL106:
  69:Src/include/SPI_Connection.h ****     }
 1625              		.loc 3 69 19 view .LVU438
 1626              	.LBE151:
 1627              	.LBE150:
 315:Src/main.c    ****     connection.SSD1322_write_C(0xa9);                        // exit partial display
 1628              		.loc 1 315 5 is_stmt 1 view .LVU439
 1629              	.LBB152:
 1630              	.LBI152:
  68:Src/include/SPI_Connection.h ****         write_data(cmd);
 1631              		.loc 3 68 10 view .LVU440
ARM GAS  /tmp/ccKGLILm.s 			page 43


 1632              	.LBB153:
  69:Src/include/SPI_Connection.h ****     }
 1633              		.loc 3 69 9 view .LVU441
  69:Src/include/SPI_Connection.h ****     }
 1634              		.loc 3 69 19 is_stmt 0 view .LVU442
 1635 016e A920     		movs	r0, #169
 1636 0170 FFF7FEFF 		bl	_ZN14SPI_Connection10write_dataEt.isra.0
 1637              	.LVL107:
  69:Src/include/SPI_Connection.h ****     }
 1638              		.loc 3 69 19 view .LVU443
 1639              	.LBE153:
 1640              	.LBE152:
 316:Src/main.c    **** 
 317:Src/main.c    ****     connection.SSD1322_write_C(0xAF);                        // –Т–Ї–ї—О—З–∞–µ–Љ —Н–Ї—А–∞–љ
 1641              		.loc 1 317 5 is_stmt 1 view .LVU444
 1642              	.LBB154:
 1643              	.LBI154:
  68:Src/include/SPI_Connection.h ****         write_data(cmd);
 1644              		.loc 3 68 10 view .LVU445
 1645              	.LBB155:
  69:Src/include/SPI_Connection.h ****     }
 1646              		.loc 3 69 9 view .LVU446
  69:Src/include/SPI_Connection.h ****     }
 1647              		.loc 3 69 19 is_stmt 0 view .LVU447
 1648 0174 AF20     		movs	r0, #175
 1649 0176 FFF7FEFF 		bl	_ZN14SPI_Connection10write_dataEt.isra.0
 1650              	.LVL108:
  69:Src/include/SPI_Connection.h ****     }
 1651              		.loc 3 69 19 view .LVU448
 1652              	.LBE155:
 1653              	.LBE154:
 318:Src/main.c    **** 
 319:Src/main.c    ****     for(uint32_t i = 0; i<1000; i++) {
 1654              		.loc 1 319 5 is_stmt 1 view .LVU449
 1655              	.LBB157:
 1656              		.loc 1 319 26 discriminator 1 view .LVU450
 1657              	.LBE157:
 1658              	.LBB158:
 1659              	.LBB156:
  69:Src/include/SPI_Connection.h ****     }
 1660              		.loc 3 69 19 is_stmt 0 view .LVU451
 1661 017a 4FF47A73 		mov	r3, #1000
 1662              	.LVL109:
 1663              	.L56:
  69:Src/include/SPI_Connection.h ****     }
 1664              		.loc 3 69 19 view .LVU452
 1665              	.LBE156:
 1666              	.LBE158:
 1667              	.LBB159:
 320:Src/main.c    ****         __NOP();
 1668              		.loc 1 320 9 is_stmt 1 view .LVU453
 1669              		.syntax unified
 1670              	@ 320 "Src/main.c" 1
 1671 017e 00BF     		nop
 1672              	@ 0 "" 2
 319:Src/main.c    ****         __NOP();
 1673              		.loc 1 319 5 discriminator 3 view .LVU454
ARM GAS  /tmp/ccKGLILm.s 			page 44


 1674              	.LVL110:
 319:Src/main.c    ****         __NOP();
 1675              		.loc 1 319 26 discriminator 1 view .LVU455
 1676              		.thumb
 1677              		.syntax unified
 1678 0180 013B     		subs	r3, r3, #1
 1679              	.LVL111:
 319:Src/main.c    ****         __NOP();
 1680              		.loc 1 319 26 is_stmt 0 discriminator 1 view .LVU456
 1681 0182 FCD1     		bne	.L56
 1682              	.LVL112:
 1683              	.L57:
 319:Src/main.c    ****         __NOP();
 1684              		.loc 1 319 26 discriminator 1 view .LVU457
 1685              	.LBE159:
 321:Src/main.c    ****     }
 322:Src/main.c    **** 
 323:Src/main.c    ****     Work1:
 1686              		.loc 1 323 5 is_stmt 1 view .LVU458
 324:Src/main.c    ****         screen.draw();
 1687              		.loc 1 324 9 view .LVU459
 1688              	.LBB160:
 1689              	.LBI160:
  83:Src/include/ScreenControl.h **** 
  84:Src/include/ScreenControl.h ****     void draw(){
 1690              		.loc 4 84 10 view .LVU460
 1691              	.LBB161:
  85:Src/include/ScreenControl.h ****         assembleFrame();
 1692              		.loc 4 85 9 view .LVU461
 1693              		.loc 4 85 22 is_stmt 0 view .LVU462
 1694 0184 01A8     		add	r0, sp, #4
 1695              	.LVL113:
 1696              		.loc 4 85 22 view .LVU463
 1697 0186 FFF7FEFF 		bl	_ZN13ScreenControl13assembleFrameEv
 1698              	.LVL114:
  86:Src/include/ScreenControl.h **** 
  87:Src/include/ScreenControl.h ****         connection->SSD1322_write_C2D(0x15, 28, 91);    // set column address, start, end
 1699              		.loc 4 87 9 is_stmt 1 view .LVU464
 1700              		.loc 4 87 38 is_stmt 0 view .LVU465
 1701 018a 5B22     		movs	r2, #91
 1702 018c 1C21     		movs	r1, #28
 1703 018e 1520     		movs	r0, #21
 1704 0190 FFF7FEFF 		bl	_ZN14SPI_Connection17SSD1322_write_C2DEhhh.isra.0
 1705              	.LVL115:
  88:Src/include/ScreenControl.h ****         connection->SSD1322_write_C2D(0x75, 0, 63);     // set row address, moved out of the loop (
 1706              		.loc 4 88 9 is_stmt 1 view .LVU466
 1707              		.loc 4 88 38 is_stmt 0 view .LVU467
 1708 0194 3F22     		movs	r2, #63
 1709 0196 0021     		movs	r1, #0
 1710 0198 7520     		movs	r0, #117
 1711 019a FFF7FEFF 		bl	_ZN14SPI_Connection17SSD1322_write_C2DEhhh.isra.0
 1712              	.LVL116:
  89:Src/include/ScreenControl.h ****         connection->SSD1322_write_C(0x5C);              // –Ч–∞–њ–Є—Б—М –≤ RAM
 1713              		.loc 4 89 9 is_stmt 1 view .LVU468
 1714              	.LBB162:
 1715              	.LBI162:
  68:Src/include/SPI_Connection.h ****         write_data(cmd);
ARM GAS  /tmp/ccKGLILm.s 			page 45


 1716              		.loc 3 68 10 view .LVU469
 1717              	.LBB163:
  69:Src/include/SPI_Connection.h ****     }
 1718              		.loc 3 69 9 view .LVU470
  69:Src/include/SPI_Connection.h ****     }
 1719              		.loc 3 69 19 is_stmt 0 view .LVU471
 1720 019e 5C20     		movs	r0, #92
 1721 01a0 FFF7FEFF 		bl	_ZN14SPI_Connection10write_dataEt.isra.0
 1722              	.LVL117:
  69:Src/include/SPI_Connection.h ****     }
 1723              		.loc 3 69 19 view .LVU472
 1724              	.LBE163:
 1725              	.LBE162:
  90:Src/include/ScreenControl.h **** 
  91:Src/include/ScreenControl.h ****         for(uint16_t i = 0; i < dataLen; i++){
 1726              		.loc 4 91 9 is_stmt 1 view .LVU473
 1727              	.LBB164:
 1728              		.loc 4 91 9 is_stmt 0 view .LVU474
 1729 01a4 0024     		movs	r4, #0
 1730              	.LVL118:
 1731              	.L58:
 1732              		.loc 4 91 31 is_stmt 1 discriminator 1 view .LVU475
 1733 01a6 BDF81C20 		ldrh	r2, [sp, #28]
 1734 01aa A3B2     		uxth	r3, r4
 1735 01ac 9A42     		cmp	r2, r3
 1736 01ae E9D9     		bls	.L57
  92:Src/include/ScreenControl.h ****             connection->SSD1322_write_D(visualData[i]);
 1737              		.loc 4 92 13 view .LVU476
 1738              	.LVL119:
 1739              	.LBB165:
 1740              	.LBI165:
  64:Src/include/SPI_Connection.h ****         write_data(0x0100 | data);          //append data to 0x01
 1741              		.loc 3 64 10 view .LVU477
 1742              	.LBB166:
  65:Src/include/SPI_Connection.h ****     }
 1743              		.loc 3 65 9 view .LVU478
 1744              	.LBE166:
 1745              	.LBE165:
 1746              		.loc 4 92 40 is_stmt 0 view .LVU479
 1747 01b0 08AB     		add	r3, sp, #32
 1748 01b2 13FA84F3 		uxtah	r3, r3, r4
 1749 01b6 0134     		adds	r4, r4, #1
 1750              	.LVL120:
 1751              	.LBB168:
 1752              	.LBB167:
  65:Src/include/SPI_Connection.h ****     }
 1753              		.loc 3 65 27 view .LVU480
 1754 01b8 13F8020C 		ldrb	r0, [r3, #-2]	@ zero_extendqisi2
  65:Src/include/SPI_Connection.h ****     }
 1755              		.loc 3 65 19 view .LVU481
 1756 01bc 40F48070 		orr	r0, r0, #256
 1757 01c0 FFF7FEFF 		bl	_ZN14SPI_Connection10write_dataEt.isra.0
 1758              	.LVL121:
  65:Src/include/SPI_Connection.h ****     }
 1759              		.loc 3 65 19 view .LVU482
 1760              	.LBE167:
 1761              	.LBE168:
ARM GAS  /tmp/ccKGLILm.s 			page 46


  91:Src/include/ScreenControl.h ****             connection->SSD1322_write_D(visualData[i]);
 1762              		.loc 4 91 9 is_stmt 1 discriminator 3 view .LVU483
  91:Src/include/ScreenControl.h ****             connection->SSD1322_write_D(visualData[i]);
 1763              		.loc 4 91 9 is_stmt 0 discriminator 3 view .LVU484
 1764 01c4 EFE7     		b	.L58
 1765              	.L62:
 1766 01c6 00BF     		.align	2
 1767              	.L61:
 1768 01c8 00100240 		.word	1073876992
 1769 01cc 00040048 		.word	1207960576
 1770 01d0 00000000 		.word	l1
 1771 01d4 00000000 		.word	l2
 1772 01d8 00000000 		.word	l3
 1773 01dc 00000000 		.word	l4
 1774              	.LBE164:
 1775              	.LBE161:
 1776              	.LBE160:
 1777              		.cfi_endproc
 1778              	.LFE181:
 1779              		.cantunwind
 1780              		.fnend
 1782              		.section	.text.startup._GLOBAL__sub_I_t,"ax",%progbits
 1783              		.align	1
 1784              		.syntax unified
 1785              		.thumb
 1786              		.thumb_func
 1788              	_GLOBAL__sub_I_t:
 1789              		.fnstart
 1790              	.LFB183:
 325:Src/main.c    **** 
 326:Src/main.c    ****     goto Work1;
 327:Src/main.c    **** 
 328:Src/main.c    ****     //EXPERIMENTAL /\----------------------------------------------/\
 329:Src/main.c    **** 
 330:Src/main.c    **** #endif
 331:Src/main.c    **** 
 332:Src/main.c    **** #ifdef TEST
 333:Src/main.c    **** 
 334:Src/main.c    ****         Spi_Init();
 335:Src/main.c    **** 
 336:Src/main.c    ****     SSD1322_SPI_Write_CD(0xfd, 0x12);                 // unlock
 337:Src/main.c    ****     SSD1322_SPI_Write_C(0xae);                        // display off
 338:Src/main.c    ****     SSD1322_SPI_Write_CD(0xb3, 0x91);                 // set display clock divide ratio/oscillator 
 339:Src/main.c    ****     SSD1322_SPI_Write_CD(0xca, 0x3f);                 // multiplex ratio 1/64 Duty (0x0F~0x3F)
 340:Src/main.c    ****     SSD1322_SPI_Write_CD(0xa2, 0x00);                 // display offset, shift mapping ram counter
 341:Src/main.c    ****     SSD1322_SPI_Write_CD(0xa1, 0x00);                 // display start line
 342:Src/main.c    ****     // SSD1322_SPI_Write_CDD(0xa0, 0x14, 0x11);           // Set Re-Map / Dual COM Line Mode
 343:Src/main.c    ****     //SSD1322_SPI_Write_CDD(0xa0, 0x06, 0x11);          // Set Re-Map / Dual COM Line Mode
 344:Src/main.c    ****     SSD1322_SPI_Write_CDD(0xa0, 0x02, 0x11);          // Set Re-Map / Dual COM Line Mode
 345:Src/main.c    ****     SSD1322_SPI_Write_CD(0xab, 0x01);                 // Enable Internal VDD Regulator
 346:Src/main.c    ****     SSD1322_SPI_Write_CDD(0xb4, 0xa0, 0x05|0xfd);    // Display Enhancement A
 347:Src/main.c    ****     SSD1322_SPI_Write_CD(0xc1, 0xAf);                 // contrast
 348:Src/main.c    ****     SSD1322_SPI_Write_CD(0xc7, 0x0f);                 // Set Scale Factor of Segment Output Current
 349:Src/main.c    ****     SSD1322_SPI_Write_C(0xb9);                        // linear grayscale
 350:Src/main.c    ****     SSD1322_SPI_Write_CD(0xb1, 0xe2);                 // Phase 1 (Reset) & Phase 2 (Pre-Charge) Per
 351:Src/main.c    ****     SSD1322_SPI_Write_CDD(0xd1, 0x82|0x20, 0x20);   // Display Enhancement B
 352:Src/main.c    ****     SSD1322_SPI_Write_CD(0xbb, 0x1f);                 // precharge  voltage
ARM GAS  /tmp/ccKGLILm.s 			page 47


 353:Src/main.c    ****     SSD1322_SPI_Write_CD(0xb6, 0x08);                 // precharge  period
 354:Src/main.c    ****     SSD1322_SPI_Write_CD(0xbe, 0x07);                 // vcomh
 355:Src/main.c    ****     SSD1322_SPI_Write_C(0xa6);                        // normal display
 356:Src/main.c    ****     SSD1322_SPI_Write_C(0xa9);                        // exit partial display
 357:Src/main.c    **** 
 358:Src/main.c    ****     SSD1322_SPI_Write_C(0xAF);                        // –Т–Ї–ї—О—З–∞–µ–Љ —Н–Ї—А–∞–љ
 359:Src/main.c    **** 
 360:Src/main.c    ****     for(uint32_t i = 0; i<1000; i++) {
 361:Src/main.c    ****         __NOP();
 362:Src/main.c    ****     }
 363:Src/main.c    **** 
 364:Src/main.c    ****     SSD1322_SPI_Write_CDD(0x15, 28, 91);// set column address, start, end
 365:Src/main.c    ****     SSD1322_SPI_Write_CDD(0x75, 0, 63); // set row address, moved out of the loop (issue 302)
 366:Src/main.c    ****     SSD1322_SPI_Write_C(0x5C); // –Ч–∞–њ–Є—Б—М –≤ RAM
 367:Src/main.c    **** 
 368:Src/main.c    **** 
 369:Src/main.c    ****     for(uint16_t pos=0;pos<OLED_Data_Length;pos++) { //?
 370:Src/main.c    ****         SSD1322_SPI_Write_D(OLED_Data[pos].Data[1]); // –Я–Є—И–µ–Љ –і–≤–∞ –њ–Є–Ї—Б–µ–ї—П
 371:Src/main.c    ****         SSD1322_SPI_Write_D(OLED_Data[pos].Data[0]); // –Я–Є—И–µ–Љ –і–≤–∞ –њ–Є–Ї—Б–µ–ї—П
 372:Src/main.c    ****     }
 373:Src/main.c    **** 
 374:Src/main.c    ****     // SSD1322_SPI_Write_C(0xAF);                        // –Т–Ї–ї—О—З–∞–µ–Љ —Н–Ї—А–∞–љ
 375:Src/main.c    **** 
 376:Src/main.c    ****     /*
 377:Src/main.c    ****     for(uint16_t pos=0;pos<sizeof(OLED_Data_t);pos++) {
 378:Src/main.c    ****         OLED_Data[pos].pix
 379:Src/main.c    ****     }
 380:Src/main.c    ****     */
 381:Src/main.c    ****     // –Ґ–Њ—З–Ї–Є –њ–Њ —Г–≥–ї–∞–Љ
 382:Src/main.c    ****     /*
 383:Src/main.c    ****     OLED_Data[0].pix0 = 0x0F;
 384:Src/main.c    ****     OLED_Data[0].pix1 = 0x09;
 385:Src/main.c    ****     OLED_Data[0].pix2 = 0x05;
 386:Src/main.c    ****     OLED_Data[0].pix3 = 0x01;
 387:Src/main.c    ****     OLED_Data[256/4-1].pix3 = 0x0F;
 388:Src/main.c    ****     OLED_Data[256/4].pix0 = 0x09;
 389:Src/main.c    ****     OLED_Data[2*256/4].pix0 = 0x05;
 390:Src/main.c    ****     OLED_Data[3*256/4].pix0 = 0x01;
 391:Src/main.c    ****     //OLED_Data[(256/4)*63].pix0 = 0x0F;
 392:Src/main.c    ****     //OLED_Data[(256/4)*64-1].pix3 = 0x0F;
 393:Src/main.c    ****     */
 394:Src/main.c    **** 
 395:Src/main.c    **** 
 396:Src/main.c    ****     for(uint8_t x=0;x<256/4;x++) { //top border
 397:Src/main.c    ****         uint16_t pos_x = (256/4)*10;
 398:Src/main.c    ****         /*
 399:Src/main.c    ****         OLED_Data[pos_x + x].pix0 = 0x0F;
 400:Src/main.c    ****         OLED_Data[pos_x + x].pix1 = 0x0F;
 401:Src/main.c    ****         OLED_Data[pos_x + x].pix2 = 0x0F;
 402:Src/main.c    ****         OLED_Data[pos_x + x].pix3 = 0x0F;
 403:Src/main.c    ****         */
 404:Src/main.c    ****     }
 405:Src/main.c    **** 
 406:Src/main.c    ****     for(uint8_t x=0;x<256/4;x++) { //bottom border
 407:Src/main.c    ****         uint16_t pos_x = (256/4)*0;
 408:Src/main.c    ****         /*
 409:Src/main.c    ****         OLED_Data[pos_x + x].pix0 = 0x0F;
ARM GAS  /tmp/ccKGLILm.s 			page 48


 410:Src/main.c    ****         OLED_Data[pos_x + x].pix1 = 0x0F;
 411:Src/main.c    ****         OLED_Data[pos_x + x].pix2 = 0x0F;
 412:Src/main.c    ****         OLED_Data[pos_x + x].pix3 = 0x0F;
 413:Src/main.c    ****         */
 414:Src/main.c    ****     }
 415:Src/main.c    **** 
 416:Src/main.c    **** 
 417:Src/main.c    ****     for(uint8_t x=0;x<10;x++) { //table separators
 418:Src/main.c    ****         uint16_t pos = (256/4)*x;
 419:Src/main.c    ****         /*
 420:Src/main.c    ****         OLED_Data[pos].pix0 = 0x0F;
 421:Src/main.c    ****         OLED_Data[pos+12].pix0 = 0x0F;
 422:Src/main.c    ****         OLED_Data[pos+25].pix0 = 0x0F;
 423:Src/main.c    ****         OLED_Data[pos+38].pix0 = 0x0F;
 424:Src/main.c    ****         OLED_Data[pos+51].pix3 = 0x0F;
 425:Src/main.c    ****         OLED_Data[pos+63].pix3 = 0x0F;
 426:Src/main.c    ****         */
 427:Src/main.c    ****     }
 428:Src/main.c    **** 
 429:Src/main.c    ****     const uint32_t Char_R[] = {
 430:Src/main.c    ****         0x00000000,
 431:Src/main.c    ****         0xFFFF1000,
 432:Src/main.c    ****         0xF000F000,
 433:Src/main.c    ****         0xF000F000,
 434:Src/main.c    ****         0xFFFF1000,
 435:Src/main.c    ****         0xF1F00000,
 436:Src/main.c    ****         0xF00F0000,
 437:Src/main.c    ****         0xF000F000
 438:Src/main.c    ****     };
 439:Src/main.c    **** 
 440:Src/main.c    ****     const uint32_t Char_E[] = {
 441:Src/main.c    ****         0x00000000,
 442:Src/main.c    ****         0xFFFFF000,
 443:Src/main.c    ****         0xF0000000,
 444:Src/main.c    ****         0xF0000000,
 445:Src/main.c    ****         0xFFFFF000,
 446:Src/main.c    ****         0xF0000000,
 447:Src/main.c    ****         0xF0000000,
 448:Src/main.c    ****         0xFFFFF000
 449:Src/main.c    ****     };
 450:Src/main.c    **** 
 451:Src/main.c    ****     uint32_t Char_G[] = {
 452:Src/main.c    ****         0x00000000,
 453:Src/main.c    ****         0x0FFF0000,
 454:Src/main.c    ****         0xF000F000,
 455:Src/main.c    ****         0xF0000000,
 456:Src/main.c    ****         0xF0000000,
 457:Src/main.c    ****         0xF00FF000,
 458:Src/main.c    ****         0xF000F000,
 459:Src/main.c    ****         0x0FFF0000
 460:Src/main.c    ****     };
 461:Src/main.c    **** 
 462:Src/main.c    ****     const uint32_t Char_CLN[] = {
 463:Src/main.c    ****         0x00000000,
 464:Src/main.c    ****         0x00000000,
 465:Src/main.c    ****         0x00FF0000,
 466:Src/main.c    ****         0x00FF0000,
ARM GAS  /tmp/ccKGLILm.s 			page 49


 467:Src/main.c    ****         0x00000000,
 468:Src/main.c    ****         0x00FF0000,
 469:Src/main.c    ****         0x00FF0000,
 470:Src/main.c    ****         0x00000000
 471:Src/main.c    ****     };
 472:Src/main.c    **** 
 473:Src/main.c    ****     uint32_t Char_U[] = {
 474:Src/main.c    ****         0x00000000,
 475:Src/main.c    ****         0xF000F000,
 476:Src/main.c    ****         0xF000F000,
 477:Src/main.c    ****         0xF000F000,
 478:Src/main.c    ****         0xF000F000,
 479:Src/main.c    ****         0xF000F000,
 480:Src/main.c    ****         0xF000F000,
 481:Src/main.c    ****         0x0FFF0000
 482:Src/main.c    ****     };
 483:Src/main.c    **** 
 484:Src/main.c    ****     uint32_t Char_I[] = {
 485:Src/main.c    ****         0x00000000,
 486:Src/main.c    ****         0x0FFF0000,
 487:Src/main.c    ****         0x00F00000,
 488:Src/main.c    ****         0x00F00000,
 489:Src/main.c    ****         0x00F00000,
 490:Src/main.c    ****         0x00F00000,
 491:Src/main.c    ****         0x00F00000,
 492:Src/main.c    ****         0x0FFF0000
 493:Src/main.c    ****     };
 494:Src/main.c    **** 
 495:Src/main.c    ****     uint32_t Char_P[] = {
 496:Src/main.c    ****         0x00000000,
 497:Src/main.c    ****         0xFFFF0000,
 498:Src/main.c    ****         0xF000F000,
 499:Src/main.c    ****         0xF000F000,
 500:Src/main.c    ****         0xFFFF0000,
 501:Src/main.c    ****         0xF0000000,
 502:Src/main.c    ****         0xF0000000,
 503:Src/main.c    ****         0xF0000000
 504:Src/main.c    ****     };
 505:Src/main.c    **** 
 506:Src/main.c    ****     for(int i = 0; i < 8; i++){ //invert
 507:Src/main.c    ****         Char_P[i] ^= 0x00000000;
 508:Src/main.c    ****     }
 509:Src/main.c    **** 
 510:Src/main.c    ****     write_char(3,2, Char_R);
 511:Src/main.c    ****     write_char(5,2, Char_E);
 512:Src/main.c    ****     write_char(7,2, Char_G);
 513:Src/main.c    ****     write_char(9,2, Char_CLN);
 514:Src/main.c    ****     write_char(11,2, Char_I);
 515:Src/main.c    ****     write_char(13, 2, Char_P);
 516:Src/main.c    **** 
 517:Src/main.c    ****     static uint32_t Top = 50000;
 518:Src/main.c    **** 
 519:Src/main.c    **** Work:
 520:Src/main.c    **** 
 521:Src/main.c    ****     //PCB LED control --------------------------
 522:Src/main.c    ****     /* –њ–µ—А–µ–Ї–ї—О—З–∞–µ–Љ –≤—Л—Е–Њ–і PORTA8 –≤ –µ–і–Є–љ–Є—Ж—Г */
 523:Src/main.c    ****     // GPIOB->BSRR |= GPIO_BSRR_BS1;
ARM GAS  /tmp/ccKGLILm.s 			page 50


 524:Src/main.c    ****     GPIOB->ODR |= GPIO_ODR_OD1; //LED3 ORANGE
 525:Src/main.c    ****     GPIOB->ODR |= GPIO_ODR_OD7; //LED4 GREEN
 526:Src/main.c    **** 
 527:Src/main.c    ****     for(uint32_t i = 0; i<Top; i++) {
 528:Src/main.c    ****         __NOP();
 529:Src/main.c    ****     }
 530:Src/main.c    **** 
 531:Src/main.c    ****     /* –њ–µ—А–µ–Ї–ї—О—З–∞–µ–Љ –≤—Л—Е–Њ–і PORTA8 –≤ –љ–Њ–ї—М */
 532:Src/main.c    ****     //GPIOB->BSRR |= GPIO_BSRR_BR1;
 533:Src/main.c    ****     GPIOB->ODR &= ~GPIO_ODR_OD1; //ORANGE
 534:Src/main.c    ****     GPIOB->ODR &= ~GPIO_ODR_OD7; //GREEN
 535:Src/main.c    **** 
 536:Src/main.c    ****     for(uint32_t i = 0; i<Top; i++) {
 537:Src/main.c    ****         __NOP();
 538:Src/main.c    ****     }
 539:Src/main.c    **** 
 540:Src/main.c    ****     if (~GPIOB->IDR & GPIO_IDR_ID10) {
 541:Src/main.c    ****         invertChar(Char_P);
 542:Src/main.c    ****     }
 543:Src/main.c    ****     else if (~GPIOB->IDR & GPIO_IDR_ID2) {
 544:Src/main.c    ****         invertChar(Char_I);
 545:Src/main.c    ****     }
 546:Src/main.c    ****     else if (~GPIOC->IDR & GPIO_IDR_ID5) {
 547:Src/main.c    ****         invertChar(Char_U);
 548:Src/main.c    ****     }
 549:Src/main.c    ****     else if (~GPIOC->IDR & GPIO_IDR_ID4) {
 550:Src/main.c    ****         invertChar(Char_G);
 551:Src/main.c    ****     }
 552:Src/main.c    **** 
 553:Src/main.c    ****     //PCB LED end ----------------------------
 554:Src/main.c    **** 
 555:Src/main.c    ****     //static uint16_t tmp = 0;
 556:Src/main.c    ****     //tmp++;
 557:Src/main.c    ****     //Spi_Write_Data(tmp);
 558:Src/main.c    ****     //SSD1322_SPI_Write_D(0xFF); // –Я–Њ–ї–љ–∞—П –Ј–∞—Б–≤–µ—В–Ї–∞ –і–Є—Б–њ–ї–µ—П
 559:Src/main.c    **** 
 560:Src/main.c    ****     //OLED ------------------------------------------------------
 561:Src/main.c    ****     SSD1322_SPI_Write_CDD(0x15, 28, 91);// set column address, start, end
 562:Src/main.c    ****     SSD1322_SPI_Write_CDD(0x75, 0, 63); // set row address, moved out of the loop (issue 302)
 563:Src/main.c    ****     SSD1322_SPI_Write_C(0x5C); // –Ч–∞–њ–Є—Б—М –≤ RAM
 564:Src/main.c    **** 
 565:Src/main.c    ****     for(uint16_t pos=0;pos<OLED_Data_Length;pos++) {
 566:Src/main.c    ****         SSD1322_SPI_Write_D(OLED_Data[pos].Data[1]); // –Я–Є—И–µ–Љ –і–≤–∞ –њ–Є–Ї—Б–µ–ї—П
 567:Src/main.c    ****         SSD1322_SPI_Write_D(OLED_Data[pos].Data[0]); // –Я–Є—И–µ–Љ –і–≤–∞ –њ–Є–Ї—Б–µ–ї—П
 568:Src/main.c    ****     }
 569:Src/main.c    **** 
 570:Src/main.c    ****     goto Work; //replace with while?
 571:Src/main.c    **** #endif
 572:Src/main.c    **** 
 573:Src/main.c    **** }
 1791              		.loc 1 573 1 is_stmt 1 view -0
 1792              		.cfi_startproc
 1793              		@ args = 0, pretend = 0, frame = 0
 1794              		@ frame_needed = 0, uses_anonymous_args = 0
 1795              	.LBB171:
 1796              	.LBI171:
 1797              		.loc 1 573 1 view .LVU486
ARM GAS  /tmp/ccKGLILm.s 			page 51


 1798              	.LBE171:
 1799 0000 2DE9F04F 		push	{r4, r5, r6, r7, r8, r9, r10, fp, lr}
 1800              	.LCFI21:
 1801              		.cfi_def_cfa_offset 36
 1802              		.cfi_offset 4, -36
 1803              		.cfi_offset 5, -32
 1804              		.cfi_offset 6, -28
 1805              		.cfi_offset 7, -24
 1806              		.cfi_offset 8, -20
 1807              		.cfi_offset 9, -16
 1808              		.cfi_offset 10, -12
 1809              		.cfi_offset 11, -8
 1810              		.cfi_offset 14, -4
 1811              	.LBB175:
 1812              	.LBB172:
  35:Src/include/ScreenControl.h ****         Label l2(testData2, t, 16, 8, 0, 32);
 1813              		.loc 4 35 42 is_stmt 0 view .LVU487
 1814 0004 4FF00008 		mov	r8, #0
 1815              	.LBE172:
 1816              	.LBE175:
 1817              		.loc 1 573 1 view .LVU488
 1818 0008 85B0     		sub	sp, sp, #20
 1819              	.LCFI22:
 1820              		.cfi_def_cfa_offset 56
 1821              	.LBB176:
 1822              	.LBB173:
  35:Src/include/ScreenControl.h ****         Label l2(testData2, t, 16, 8, 0, 32);
 1823              		.loc 4 35 42 view .LVU489
 1824 000a CDE90188 		strd	r8, r8, [sp, #4]
 1825 000e 274E     		ldr	r6, .L64
 1826 0010 274F     		ldr	r7, .L64+4
  35:Src/include/ScreenControl.h ****         Label l2(testData2, t, 16, 8, 0, 32);
 1827              		.loc 4 35 15 discriminator 1 view .LVU490
 1828 0012 284D     		ldr	r5, .L64+8
 1829 0014 284C     		ldr	r4, .L64+12
  35:Src/include/ScreenControl.h ****         Label l2(testData2, t, 16, 8, 0, 32);
 1830              		.loc 4 35 42 view .LVU491
 1831 0016 2949     		ldr	r1, .L64+16
  36:Src/include/ScreenControl.h ****         Label l3(testData2, t, 32, 8, 64, 0);
 1832              		.loc 4 36 44 view .LVU492
 1833 0018 DFF8A490 		ldr	r9, .L64+20
 1834 001c DFF8A4B0 		ldr	fp, .L64+24
  35:Src/include/ScreenControl.h ****         Label l2(testData2, t, 16, 8, 0, 32);
 1835              		.loc 4 35 42 view .LVU493
 1836 0020 4FF0080A 		mov	r10, #8
 1837 0024 CDF800A0 		str	r10, [sp]
 1838 0028 3278     		ldrb	r2, [r6]	@ zero_extendqisi2
 1839 002a 2023     		movs	r3, #32
 1840 002c 3846     		mov	r0, r7
 1841 002e FFF7FEFF 		bl	_ZN5LabelC1EPhhhhhh
 1842              	.LVL122:
  35:Src/include/ScreenControl.h ****         Label l2(testData2, t, 16, 8, 0, 32);
 1843              		.loc 4 35 15 discriminator 1 view .LVU494
 1844 0032 2A46     		mov	r2, r5
 1845 0034 2146     		mov	r1, r4
 1846 0036 3846     		mov	r0, r7
  36:Src/include/ScreenControl.h ****         Label l3(testData2, t, 32, 8, 64, 0);
ARM GAS  /tmp/ccKGLILm.s 			page 52


 1847              		.loc 4 36 44 view .LVU495
 1848 0038 2027     		movs	r7, #32
  35:Src/include/ScreenControl.h ****         Label l2(testData2, t, 16, 8, 0, 32);
 1849              		.loc 4 35 15 discriminator 1 view .LVU496
 1850 003a FFF7FEFF 		bl	__aeabi_atexit
 1851              	.LVL123:
  36:Src/include/ScreenControl.h ****         Label l3(testData2, t, 32, 8, 64, 0);
 1852              		.loc 4 36 44 view .LVU497
 1853 003e CDE90187 		strd	r8, r7, [sp, #4]
 1854 0042 CDF800A0 		str	r10, [sp]
 1855 0046 3278     		ldrb	r2, [r6]	@ zero_extendqisi2
 1856 0048 1023     		movs	r3, #16
 1857 004a 4946     		mov	r1, r9
 1858 004c 5846     		mov	r0, fp
 1859 004e FFF7FEFF 		bl	_ZN5LabelC1EPhhhhhh
 1860              	.LVL124:
  36:Src/include/ScreenControl.h ****         Label l3(testData2, t, 32, 8, 64, 0);
 1861              		.loc 4 36 15 discriminator 1 view .LVU498
 1862 0052 2A46     		mov	r2, r5
 1863 0054 2146     		mov	r1, r4
 1864 0056 5846     		mov	r0, fp
 1865 0058 FFF7FEFF 		bl	__aeabi_atexit
 1866              	.LVL125:
  37:Src/include/ScreenControl.h ****         Label l4(testData2, t, 32, 4, 64, 32);
 1867              		.loc 4 37 44 view .LVU499
 1868 005c CDF80880 		str	r8, [sp, #8]
 1869 0060 4FF04008 		mov	r8, #64
 1870 0064 CDE900A8 		strd	r10, r8, [sp]
 1871 0068 DFF85CB0 		ldr	fp, .L64+28
 1872 006c 3278     		ldrb	r2, [r6]	@ zero_extendqisi2
  38:Src/include/ScreenControl.h **** 
 1873              		.loc 4 38 45 view .LVU500
 1874 006e DFF85CA0 		ldr	r10, .L64+32
  37:Src/include/ScreenControl.h ****         Label l4(testData2, t, 32, 4, 64, 32);
 1875              		.loc 4 37 44 view .LVU501
 1876 0072 3B46     		mov	r3, r7
 1877 0074 4946     		mov	r1, r9
 1878 0076 5846     		mov	r0, fp
 1879 0078 FFF7FEFF 		bl	_ZN5LabelC1EPhhhhhh
 1880              	.LVL126:
  37:Src/include/ScreenControl.h ****         Label l4(testData2, t, 32, 4, 64, 32);
 1881              		.loc 4 37 15 discriminator 1 view .LVU502
 1882 007c 2A46     		mov	r2, r5
 1883 007e 2146     		mov	r1, r4
 1884 0080 5846     		mov	r0, fp
 1885 0082 FFF7FEFF 		bl	__aeabi_atexit
 1886              	.LVL127:
  38:Src/include/ScreenControl.h **** 
 1887              		.loc 4 38 45 view .LVU503
 1888 0086 CDE90187 		strd	r8, r7, [sp, #4]
 1889 008a 0423     		movs	r3, #4
 1890 008c 0093     		str	r3, [sp]
 1891 008e 3278     		ldrb	r2, [r6]	@ zero_extendqisi2
 1892 0090 4946     		mov	r1, r9
 1893 0092 3B46     		mov	r3, r7
 1894 0094 5046     		mov	r0, r10
 1895 0096 FFF7FEFF 		bl	_ZN5LabelC1EPhhhhhh
ARM GAS  /tmp/ccKGLILm.s 			page 53


 1896              	.LVL128:
  38:Src/include/ScreenControl.h **** 
 1897              		.loc 4 38 15 discriminator 1 view .LVU504
 1898 009a 2A46     		mov	r2, r5
 1899 009c 2146     		mov	r1, r4
 1900 009e 5046     		mov	r0, r10
 1901              	.LBE173:
 1902              	.LBE176:
 1903              		.loc 1 573 1 view .LVU505
 1904 00a0 05B0     		add	sp, sp, #20
 1905              	.LCFI23:
 1906              		.cfi_def_cfa_offset 36
 1907              		@ sp needed
 1908 00a2 BDE8F04F 		pop	{r4, r5, r6, r7, r8, r9, r10, fp, lr}
 1909              	.LCFI24:
 1910              		.cfi_restore 14
 1911              		.cfi_restore 11
 1912              		.cfi_restore 10
 1913              		.cfi_restore 9
 1914              		.cfi_restore 8
 1915              		.cfi_restore 7
 1916              		.cfi_restore 6
 1917              		.cfi_restore 5
 1918              		.cfi_restore 4
 1919              		.cfi_def_cfa_offset 0
 1920              	.LBB177:
 1921              	.LBB174:
  38:Src/include/ScreenControl.h **** 
 1922              		.loc 4 38 15 discriminator 1 view .LVU506
 1923 00a6 FFF7FEBF 		b	__aeabi_atexit
 1924              	.LVL129:
 1925              	.L65:
 1926 00aa 00BF     		.align	2
 1927              	.L64:
 1928 00ac 00000000 		.word	t
 1929 00b0 00000000 		.word	l1
 1930 00b4 00000000 		.word	__dso_handle
 1931 00b8 00000000 		.word	_ZN5LabelD1Ev
 1932 00bc 00000000 		.word	testData
 1933 00c0 00000000 		.word	testData2
 1934 00c4 00000000 		.word	l2
 1935 00c8 00000000 		.word	l3
 1936 00cc 00000000 		.word	l4
 1937              	.LBE174:
 1938              	.LBE177:
 1939              		.cfi_endproc
 1940              	.LFE183:
 1941              		.cantunwind
 1942              		.fnend
 1944              		.section	.init_array,"aw",%init_array
 1945              		.align	2
 1946 0000 00000000 		.word	_GLOBAL__sub_I_t(target1)
 1947              		.global	OLED_Data
 1948              		.section	.bss.OLED_Data,"aw",%nobits
 1949              		.align	1
 1952              	OLED_Data:
 1953 0000 00000000 		.space	8192
ARM GAS  /tmp/ccKGLILm.s 			page 54


 1953      00000000 
 1953      00000000 
 1953      00000000 
 1953      00000000 
 1954              		.global	l4
 1955              		.section	.bss.l4,"aw",%nobits
 1956              		.align	2
 1959              	l4:
 1960 0000 00000000 		.space	12
 1960      00000000 
 1960      00000000 
 1961              		.global	l3
 1962              		.section	.bss.l3,"aw",%nobits
 1963              		.align	2
 1966              	l3:
 1967 0000 00000000 		.space	12
 1967      00000000 
 1967      00000000 
 1968              		.global	l2
 1969              		.section	.bss.l2,"aw",%nobits
 1970              		.align	2
 1973              	l2:
 1974 0000 00000000 		.space	12
 1974      00000000 
 1974      00000000 
 1975              		.global	l1
 1976              		.section	.bss.l1,"aw",%nobits
 1977              		.align	2
 1980              	l1:
 1981 0000 00000000 		.space	12
 1981      00000000 
 1981      00000000 
 1982              		.global	testData2
 1983              		.section	.data.testData2,"aw"
 1986              	testData2:
 1987 0000 FFFFFFFF 		.ascii	"\377\377\377\377\377\377\377\377\377\377\377\377\377"
 1987      FFFFFFFF 
 1987      FFFFFFFF 
 1987      FF
 1988 000d FFFFFFFF 		.ascii	"\377\377\377\377\377\377\377\377\377\377\377\377\377"
 1988      FFFFFFFF 
 1988      FFFFFFFF 
 1988      FF
 1989 001a FFFFFFFF 		.ascii	"\377\377\377\377\377\377\377\377\377\377\377\377\377"
 1989      FFFFFFFF 
 1989      FFFFFFFF 
 1989      FF
 1990 0027 FFFFFFFF 		.ascii	"\377\377\377\377\377\377\377\377\377\377\377\377\377"
 1990      FFFFFFFF 
 1990      FFFFFFFF 
 1990      FF
 1991 0034 FFFFFFFF 		.ascii	"\377\377\377\377\377\377\377\377\377\377\377\377\377"
 1991      FFFFFFFF 
 1991      FFFFFFFF 
 1991      FF
 1992 0041 FFFFFFFF 		.ascii	"\377\377\377\377\377\377\377\377\377\377\377\377\377"
 1992      FFFFFFFF 
ARM GAS  /tmp/ccKGLILm.s 			page 55


 1992      FFFFFFFF 
 1992      FF
 1993 004e FFFFFFFF 		.ascii	"\377\377\377\377\377\377\377\377\377\377\377\377\377"
 1993      FFFFFFFF 
 1993      FFFFFFFF 
 1993      FF
 1994 005b FFFFFFFF 		.ascii	"\377\377\377\377\377\377\377\377\377\377\377\377\377"
 1994      FFFFFFFF 
 1994      FFFFFFFF 
 1994      FF
 1995 0068 FFFFFFFF 		.ascii	"\377\377\377\377\377\377\377\377\377\377\377\377\377"
 1995      FFFFFFFF 
 1995      FFFFFFFF 
 1995      FF
 1996 0075 FFFFFFFF 		.ascii	"\377\377\377\377\377\377\377\377\377\377\377"
 1996      FFFFFFFF 
 1996      FFFFFF
 1997              		.global	testData
 1998              		.section	.data.testData,"aw"
 2001              	testData:
 2002 0000 FFFFFFFF 		.ascii	"\377\377\377\377\377\377\377\377\377\377\377\377\377"
 2002      FFFFFFFF 
 2002      FFFFFFFF 
 2002      FF
 2003 000d FFFFFFFF 		.ascii	"\377\377\377\377\377\377\377\377\377\377\377\377\377"
 2003      FFFFFFFF 
 2003      FFFFFFFF 
 2003      FF
 2004 001a FFFFFFFF 		.ascii	"\377\377\377\377\377\377\377\377\377\377\377\377\377"
 2004      FFFFFFFF 
 2004      FFFFFFFF 
 2004      FF
 2005 0027 FFFFFFFF 		.ascii	"\377\377\377\377\377\377\377\377\377\377\377\377\377"
 2005      FFFFFFFF 
 2005      FFFFFFFF 
 2005      FF
 2006 0034 FFFFFFFF 		.ascii	"\377\377\377\377\377\377\377\377\377\377\377\377\377"
 2006      FFFFFFFF 
 2006      FFFFFFFF 
 2006      FF
 2007 0041 FFFFFFFF 		.ascii	"\377\377\377\377\377\377\377\377\377\377\377\377\377"
 2007      FFFFFFFF 
 2007      FFFFFFFF 
 2007      FF
 2008 004e FFFFFFFF 		.ascii	"\377\377\377\377\377\377\377\377\377\377\377\377\377"
 2008      FFFFFFFF 
 2008      FFFFFFFF 
 2008      FF
 2009 005b FFFFFFFF 		.ascii	"\377\377\377\377\377\377\377\377\377\377\377\377\377"
 2009      FFFFFFFF 
 2009      FFFFFFFF 
 2009      FF
 2010 0068 FFFFFFFF 		.ascii	"\377\377\377\377\377\377\377\377\377\377\377\377\377"
 2010      FFFFFFFF 
 2010      FFFFFFFF 
 2010      FF
 2011 0075 FFFFFFFF 		.ascii	"\377\377\377\377\377\377\377\377\377\377\377"
ARM GAS  /tmp/ccKGLILm.s 			page 56


 2011      FFFFFFFF 
 2011      FFFFFF
 2012              		.global	t
 2013              		.section	.data.t,"aw"
 2016              	t:
 2017 0000 80       		.byte	-128
 2018              		.section	.rodata._ZN2tfL6char_0E,"a"
 2021              	_ZN2tfL6char_0E:
 2022 0000 04F40040 		.ascii	"\004\364\000@\000@\360\017\360\360\360\360O\000@\004"
 2022      0040F00F 
 2022      F0F0F0F0 
 2022      4F004004 
 2023 0010 F400     		.ascii	"\364\000"
 2024              		.text
 2025              	.Letext0:
 2026              		.file 5 "/usr/arm-none-eabi/include/machine/_default_types.h"
 2027              		.file 6 "/usr/arm-none-eabi/include/sys/_stdint.h"
 2028              		.file 7 "./Src/Drivers/CMSIS/Device/ST/STM32G4xx/Include/stm32g474xx.h"
 2029              		.file 8 "Src/include/FONT_A.h"
ARM GAS  /tmp/ccKGLILm.s 			page 57


DEFINED SYMBOLS
                            *ABS*:00000000 main.c
     /tmp/ccKGLILm.s:21     .text._ZN5LabelD2Ev:00000000 $t
     /tmp/ccKGLILm.s:27     .text._ZN5LabelD2Ev:00000000 _ZN5LabelD2Ev
    .ARM.exidx.text._ZN5LabelD2Ev:00000000 $d
     /tmp/ccKGLILm.s:27     .text._ZN5LabelD2Ev:00000000 _ZN5LabelD1Ev
     /tmp/ccKGLILm.s:47     .text._ZN14SPI_Connection10write_dataEt.isra.0:00000000 $t
     /tmp/ccKGLILm.s:52     .text._ZN14SPI_Connection10write_dataEt.isra.0:00000000 _ZN14SPI_Connection10write_dataEt.isra.0
     /tmp/ccKGLILm.s:100    .text._ZN14SPI_Connection10write_dataEt.isra.0:00000024 $d
.ARM.exidx.text._ZN14SPI_Connection10write_dataEt.isra.0:00000000 $d
     /tmp/ccKGLILm.s:108    .text._ZN14SPI_Connection16SSD1322_write_CDEhh.isra.0:00000000 $t
     /tmp/ccKGLILm.s:113    .text._ZN14SPI_Connection16SSD1322_write_CDEhh.isra.0:00000000 _ZN14SPI_Connection16SSD1322_write_CDEhh.isra.0
.ARM.exidx.text._ZN14SPI_Connection16SSD1322_write_CDEhh.isra.0:00000000 $d
     /tmp/ccKGLILm.s:177    .text._ZN14SPI_Connection17SSD1322_write_C2DEhhh.isra.0:00000000 $t
     /tmp/ccKGLILm.s:182    .text._ZN14SPI_Connection17SSD1322_write_C2DEhhh.isra.0:00000000 _ZN14SPI_Connection17SSD1322_write_C2DEhhh.isra.0
.ARM.exidx.text._ZN14SPI_Connection17SSD1322_write_C2DEhhh.isra.0:00000000 $d
     /tmp/ccKGLILm.s:264    .text._ZN5Label8setGlyphEPKhhhhh:00000000 $t
     /tmp/ccKGLILm.s:270    .text._ZN5Label8setGlyphEPKhhhhh:00000000 _ZN5Label8setGlyphEPKhhhhh
.ARM.exidx.text._ZN5Label8setGlyphEPKhhhhh:00000000 $d
     /tmp/ccKGLILm.s:356    .text._ZN5LabelC2EPhhhhhh:00000000 $t
     /tmp/ccKGLILm.s:362    .text._ZN5LabelC2EPhhhhhh:00000000 _ZN5LabelC2EPhhhhhh
     /tmp/ccKGLILm.s:485    .text._ZN5LabelC2EPhhhhhh:0000007c $d
     /tmp/ccKGLILm.s:2021   .rodata._ZN2tfL6char_0E:00000000 _ZN2tfL6char_0E
.ARM.exidx.text._ZN5LabelC2EPhhhhhh:00000000 $d
     /tmp/ccKGLILm.s:362    .text._ZN5LabelC2EPhhhhhh:00000000 _ZN5LabelC1EPhhhhhh
     /tmp/ccKGLILm.s:494    .text._ZN14SPI_ConnectionC2Ev:00000000 $t
     /tmp/ccKGLILm.s:500    .text._ZN14SPI_ConnectionC2Ev:00000000 _ZN14SPI_ConnectionC2Ev
     /tmp/ccKGLILm.s:623    .text._ZN14SPI_ConnectionC2Ev:00000084 $d
.ARM.exidx.text._ZN14SPI_ConnectionC2Ev:00000000 $d
     /tmp/ccKGLILm.s:500    .text._ZN14SPI_ConnectionC2Ev:00000000 _ZN14SPI_ConnectionC1Ev
     /tmp/ccKGLILm.s:634    .text._ZN13ScreenControl13assembleFrameEv:00000000 $t
     /tmp/ccKGLILm.s:640    .text._ZN13ScreenControl13assembleFrameEv:00000000 _ZN13ScreenControl13assembleFrameEv
.ARM.exidx.text._ZN13ScreenControl13assembleFrameEv:00000000 $d
     /tmp/ccKGLILm.s:821    .text._Z14Spi_Write_Datat:00000000 $t
     /tmp/ccKGLILm.s:827    .text._Z14Spi_Write_Datat:00000000 _Z14Spi_Write_Datat
     /tmp/ccKGLILm.s:876    .text._Z14Spi_Write_Datat:00000024 $d
.ARM.exidx.text._Z14Spi_Write_Datat:00000000 $d
     /tmp/ccKGLILm.s:884    .text._Z19SSD1322_SPI_Write_Dh:00000000 $t
     /tmp/ccKGLILm.s:890    .text._Z19SSD1322_SPI_Write_Dh:00000000 _Z19SSD1322_SPI_Write_Dh
.ARM.exidx.text._Z19SSD1322_SPI_Write_Dh:00000000 $d
     /tmp/ccKGLILm.s:912    .text._Z19SSD1322_SPI_Write_Ch:00000000 $t
     /tmp/ccKGLILm.s:918    .text._Z19SSD1322_SPI_Write_Ch:00000000 _Z19SSD1322_SPI_Write_Ch
.ARM.exidx.text._Z19SSD1322_SPI_Write_Ch:00000000 $d
     /tmp/ccKGLILm.s:938    .text._Z20SSD1322_SPI_Write_CDhh:00000000 $t
     /tmp/ccKGLILm.s:944    .text._Z20SSD1322_SPI_Write_CDhh:00000000 _Z20SSD1322_SPI_Write_CDhh
.ARM.exidx.text._Z20SSD1322_SPI_Write_CDhh:00000000 $d
     /tmp/ccKGLILm.s:996    .text._Z21SSD1322_SPI_Write_CDDhhh:00000000 $t
     /tmp/ccKGLILm.s:1002   .text._Z21SSD1322_SPI_Write_CDDhhh:00000000 _Z21SSD1322_SPI_Write_CDDhhh
.ARM.exidx.text._Z21SSD1322_SPI_Write_CDDhhh:00000000 $d
     /tmp/ccKGLILm.s:1064   .text._Z22SSD1322_SPI_Write_CDDDhhhh:00000000 $t
     /tmp/ccKGLILm.s:1070   .text._Z22SSD1322_SPI_Write_CDDDhhhh:00000000 _Z22SSD1322_SPI_Write_CDDDhhhh
.ARM.exidx.text._Z22SSD1322_SPI_Write_CDDDhhhh:00000000 $d
     /tmp/ccKGLILm.s:1138   .text._Z23SSD1322_SPI_Write_CDDDDhhhhh:00000000 $t
     /tmp/ccKGLILm.s:1144   .text._Z23SSD1322_SPI_Write_CDDDDhhhhh:00000000 _Z23SSD1322_SPI_Write_CDDDDhhhhh
.ARM.exidx.text._Z23SSD1322_SPI_Write_CDDDDhhhhh:00000000 $d
     /tmp/ccKGLILm.s:1221   .text._Z10invertCharPm:00000000 $t
     /tmp/ccKGLILm.s:1227   .text._Z10invertCharPm:00000000 _Z10invertCharPm
ARM GAS  /tmp/ccKGLILm.s 			page 58


     /tmp/ccKGLILm.s:1296   .text._Z10invertCharPm:00000030 $d
     /tmp/ccKGLILm.s:1952   .bss.OLED_Data:00000000 OLED_Data
 .ARM.exidx.text._Z10invertCharPm:00000000 $d
     /tmp/ccKGLILm.s:1303   .text.startup.main:00000000 $t
     /tmp/ccKGLILm.s:1309   .text.startup.main:00000000 main
     /tmp/ccKGLILm.s:1768   .text.startup.main:000001c8 $d
     /tmp/ccKGLILm.s:1980   .bss.l1:00000000 l1
     /tmp/ccKGLILm.s:1973   .bss.l2:00000000 l2
     /tmp/ccKGLILm.s:1966   .bss.l3:00000000 l3
     /tmp/ccKGLILm.s:1959   .bss.l4:00000000 l4
     .ARM.exidx.text.startup.main:00000000 $d
     /tmp/ccKGLILm.s:1783   .text.startup._GLOBAL__sub_I_t:00000000 $t
     /tmp/ccKGLILm.s:1788   .text.startup._GLOBAL__sub_I_t:00000000 _GLOBAL__sub_I_t
     /tmp/ccKGLILm.s:1928   .text.startup._GLOBAL__sub_I_t:000000ac $d
     /tmp/ccKGLILm.s:2016   .data.t:00000000 t
     /tmp/ccKGLILm.s:2001   .data.testData:00000000 testData
     /tmp/ccKGLILm.s:1986   .data.testData2:00000000 testData2
.ARM.exidx.text.startup._GLOBAL__sub_I_t:00000000 $d
     /tmp/ccKGLILm.s:1945   .init_array:00000000 $d
     /tmp/ccKGLILm.s:1949   .bss.OLED_Data:00000000 $d
     /tmp/ccKGLILm.s:1956   .bss.l4:00000000 $d
     /tmp/ccKGLILm.s:1963   .bss.l3:00000000 $d
     /tmp/ccKGLILm.s:1970   .bss.l2:00000000 $d
     /tmp/ccKGLILm.s:1977   .bss.l1:00000000 $d
                           .group:00000000 _ZN5LabelD5Ev
                           .group:00000000 _ZN5LabelC5EPhhhhhh
                           .group:00000000 _ZN14SPI_ConnectionC5Ev

UNDEFINED SYMBOLS
memset
__aeabi_atexit
__dso_handle
