ARM GAS  /tmp/cc5ZvWqu.s 			page 1


   1              		.cpu cortex-m4
   2              		.arch armv7e-m
   3              		.fpu fpv4-sp-d16
   4              		.eabi_attribute 27, 1
   5              		.eabi_attribute 28, 1
   6              		.eabi_attribute 20, 1
   7              		.eabi_attribute 21, 1
   8              		.eabi_attribute 23, 3
   9              		.eabi_attribute 24, 1
  10              		.eabi_attribute 25, 1
  11              		.eabi_attribute 26, 1
  12              		.eabi_attribute 30, 4
  13              		.eabi_attribute 34, 1
  14              		.eabi_attribute 18, 4
  15              		.file	"main.c"
  16              		.text
  17              	.Ltext0:
  18              		.cfi_sections	.debug_frame
  19              		.file 1 "Src/main.c"
  20              		.section	.text._ZN5LabelD2Ev,"axG",%progbits,_ZN5LabelD5Ev,comdat
  21              		.align	1
  22              		.weak	_ZN5LabelD2Ev
  23              		.syntax unified
  24              		.thumb
  25              		.thumb_func
  27              	_ZN5LabelD2Ev:
  28              		.fnstart
  29              	.LVL0:
  30              	.LFB136:
  31              		.file 2 "Src/include/Label.h"
   1:Src/include/Label.h **** #ifndef LABEL_H
   2:Src/include/Label.h **** #define LABEL_H
   3:Src/include/Label.h **** 
   4:Src/include/Label.h **** #include "FONT_A.h"
   5:Src/include/Label.h **** 
   6:Src/include/Label.h **** class Label{    //separate into geometry and text obj later
   7:Src/include/Label.h **** private:
   8:Src/include/Label.h **** 
   9:Src/include/Label.h **** public:
  10:Src/include/Label.h ****     uint8_t* data = nullptr;
  11:Src/include/Label.h **** 
  12:Src/include/Label.h ****     uint8_t dataLen      = 0;
  13:Src/include/Label.h ****     uint8_t width        = 0;
  14:Src/include/Label.h ****     uint8_t height       = 0;
  15:Src/include/Label.h **** 
  16:Src/include/Label.h ****     uint8_t xPos = 0;
  17:Src/include/Label.h ****     uint8_t yPos = 0;
  18:Src/include/Label.h **** 
  19:Src/include/Label.h ****     Label(uint8_t* d, uint8_t dL, uint8_t w, uint8_t h, uint8_t x, uint8_t y){
  20:Src/include/Label.h ****         data = d;
  21:Src/include/Label.h **** 
  22:Src/include/Label.h ****         dataLen = dL;
  23:Src/include/Label.h **** 
  24:Src/include/Label.h ****         width   = w;
  25:Src/include/Label.h ****         height  = h;
  26:Src/include/Label.h **** 
  27:Src/include/Label.h ****         xPos    = x;
ARM GAS  /tmp/cc5ZvWqu.s 			page 2


  28:Src/include/Label.h ****         yPos    = y;
  29:Src/include/Label.h **** 
  30:Src/include/Label.h ****         invert();
  31:Src/include/Label.h **** 
  32:Src/include/Label.h ****         setGlyph(tf::char_0, 3, 6, 1, 1);
  33:Src/include/Label.h ****         setGlyph(tf::char_0, 3, 6, 4, 1);
  34:Src/include/Label.h ****         setGlyph(tf::char_0, 3, 6, 7, 1);
  35:Src/include/Label.h ****         setGlyph(tf::char_0, 3, 6, 10, 1);
  36:Src/include/Label.h ****         setGlyph(tf::char_0, 3, 6, 13, 1);
  37:Src/include/Label.h **** 
  38:Src/include/Label.h ****     }
  39:Src/include/Label.h **** 
  40:Src/include/Label.h ****     ~Label(){}
  32              		.loc 2 40 5 view -0
  33              		.cfi_startproc
  34              		@ args = 0, pretend = 0, frame = 0
  35              		@ frame_needed = 0, uses_anonymous_args = 0
  36              		@ link register save eliminated.
  37              		.loc 2 40 14 is_stmt 0 view .LVU1
  38 0000 7047     		bx	lr
  39              		.cfi_endproc
  40              	.LFE136:
  41              		.cantunwind
  42              		.fnend
  44              		.weak	_ZN5LabelD1Ev
  45              		.thumb_set _ZN5LabelD1Ev,_ZN5LabelD2Ev
  46              		.section	.text._ZN14SPI_Connection10write_dataEt.isra.0,"ax",%progbits
  47              		.align	1
  48              		.syntax unified
  49              		.thumb
  50              		.thumb_func
  52              	_ZN14SPI_Connection10write_dataEt.isra.0:
  53              		.fnstart
  54              	.LVL1:
  55              	.LFB184:
  56              		.file 3 "Src/include/SPI_Connection.h"
   1:Src/include/SPI_Connection.h **** #ifndef SPI_CONNECTION_H
   2:Src/include/SPI_Connection.h **** #define SPI_CONNECTION_H
   3:Src/include/SPI_Connection.h **** 
   4:Src/include/SPI_Connection.h **** #include <stm32g474xx.h>
   5:Src/include/SPI_Connection.h **** 
   6:Src/include/SPI_Connection.h **** #ifndef CS_LOW
   7:Src/include/SPI_Connection.h **** #define		 CS_LOW 	GPIOB->BSRR = GPIO_BSRR_BR12;
   8:Src/include/SPI_Connection.h **** #endif
   9:Src/include/SPI_Connection.h **** 
  10:Src/include/SPI_Connection.h **** #ifndef CS_HIGH
  11:Src/include/SPI_Connection.h **** #define 	 CS_HIGH 	GPIOB->BSRR = GPIO_BSRR_BS12;
  12:Src/include/SPI_Connection.h **** #endif
  13:Src/include/SPI_Connection.h **** 
  14:Src/include/SPI_Connection.h **** class SPI_Connection{
  15:Src/include/SPI_Connection.h **** private:
  16:Src/include/SPI_Connection.h **** public:
  17:Src/include/SPI_Connection.h ****     SPI_Connection(){
  18:Src/include/SPI_Connection.h ****         RCC->AHB2ENR  |= RCC_AHB2ENR_GPIOBEN;   // –≤–∫–ª—é—á–∞–µ–º —Ç–∞–∫—Ç–∏—Ä–æ–≤–∞–Ω–∏–µ PortB
  19:Src/include/SPI_Connection.h **** 
  20:Src/include/SPI_Connection.h ****         GPIOB->MODER  &= ~(GPIO_MODER_MODE12   | GPIO_MODER_MODE13   | GPIO_MODER_MODE14   | GPIO_M
  21:Src/include/SPI_Connection.h ****         GPIOB->MODER  |=  (GPIO_MODER_MODE12_0 | GPIO_MODER_MODE13_1 | GPIO_MODER_MODE14_0 | GPIO_M
ARM GAS  /tmp/cc5ZvWqu.s 			page 3


  22:Src/include/SPI_Connection.h ****         GPIOB->AFR[1] &= ~( GPIO_AFRH_AFSEL13   | GPIO_AFRH_AFSEL15 );                             
  23:Src/include/SPI_Connection.h ****         GPIOB->AFR[1] |=  ( GPIO_AFRH_AFSEL13_2 | GPIO_AFRH_AFSEL13_0 | GPIO_AFRH_AFSEL15_2 | GPIO_
  24:Src/include/SPI_Connection.h **** 
  25:Src/include/SPI_Connection.h ****         GPIOB->BSRR |= GPIO_BSRR_BR14;          // —à–ª–µ–º —Å–±—Ä–æ—Å –Ω–∞ PB14
  26:Src/include/SPI_Connection.h **** 
  27:Src/include/SPI_Connection.h ****         RCC->APB1ENR1 |= RCC_APB1ENR1_SPI2EN;   // –≤–∫–ª—é—á–∞–µ–º SPI2 –Ω–∞ —Ç–∞–∫—Ç–∏—Ä–æ–≤–∞–Ω–
  28:Src/include/SPI_Connection.h **** 
  29:Src/include/SPI_Connection.h ****         SPI2->CR1 |= SPI_CR1_MSTR | SPI_CR1_CPOL | SPI_CR1_CPHA | SPI_CR1_BR_0 | SPI_CR1_BR_1 | SPI
  30:Src/include/SPI_Connection.h ****         SPI2->CR2 |= SPI_CR2_DS_3;              // –¥–ª–∏–Ω–∞ —Ñ—Ä–µ–π–º–∞ 9-–±–∏—Ç
  31:Src/include/SPI_Connection.h ****         SPI2->CR2 &= ~(SPI_CR2_DS_0 | SPI_CR2_DS_1 | SPI_CR2_DS_2);
  32:Src/include/SPI_Connection.h **** 
  33:Src/include/SPI_Connection.h ****         CS_HIGH
  34:Src/include/SPI_Connection.h **** 
  35:Src/include/SPI_Connection.h ****         SPI2->CR1 |= SPI_CR1_SPE;               // –≤–∫–ª—é—á–∞–µ–º SPI
  36:Src/include/SPI_Connection.h **** 
  37:Src/include/SPI_Connection.h ****         for(uint32_t timer=0;timer<500;timer++) {
  38:Src/include/SPI_Connection.h ****             __NOP();
  39:Src/include/SPI_Connection.h ****         }
  40:Src/include/SPI_Connection.h **** 
  41:Src/include/SPI_Connection.h ****         GPIOB->BSRR |= GPIO_BSRR_BS14;          // –æ—Ç–∫–ª—é—á–∞–µ–º —Å–±—Ä–æ—Å
  42:Src/include/SPI_Connection.h ****     }
  43:Src/include/SPI_Connection.h **** 
  44:Src/include/SPI_Connection.h ****     ~SPI_Connection(){
  45:Src/include/SPI_Connection.h **** 
  46:Src/include/SPI_Connection.h ****     }
  47:Src/include/SPI_Connection.h **** 
  48:Src/include/SPI_Connection.h ****     uint16_t write_data(uint16_t data){
  57              		.loc 3 48 14 is_stmt 1 view -0
  58              		.cfi_startproc
  59              		@ args = 0, pretend = 0, frame = 0
  60              		@ frame_needed = 0, uses_anonymous_args = 0
  61              		@ link register save eliminated.
  49:Src/include/SPI_Connection.h ****         while(!(SPI2->SR & SPI_SR_TXE));    //–∂–¥—ë–º –ø–æ–∫–∞ –æ–ø—É—Å—Ç–æ—à–∏—Ç—Å—è Tx –±—É—Ñ–µ—
  62              		.loc 3 49 9 view .LVU3
  63              		.loc 3 49 23 is_stmt 0 discriminator 1 view .LVU4
  64 0000 084B     		ldr	r3, .L9
  65              	.L3:
  66              		.loc 3 49 15 is_stmt 1 discriminator 1 view .LVU5
  67              		.loc 3 49 23 is_stmt 0 discriminator 1 view .LVU6
  68 0002 9A68     		ldr	r2, [r3, #8]
  69              		.loc 3 49 15 discriminator 1 view .LVU7
  70 0004 9207     		lsls	r2, r2, #30
  71 0006 FCD5     		bpl	.L3
  50:Src/include/SPI_Connection.h **** 
  51:Src/include/SPI_Connection.h ****         CS_LOW                              //–∞–∫—Ç–∏–≤–∏—Ä—É–µ–º Chip Select
  72              		.loc 3 51 9 is_stmt 1 view .LVU8
  73 0008 074A     		ldr	r2, .L9+4
  74 000a 4FF08051 		mov	r1, #268435456
  75 000e 9161     		str	r1, [r2, #24]
  52:Src/include/SPI_Connection.h **** 
  53:Src/include/SPI_Connection.h ****         SPI2->DR = data;                    //–æ—Ç–ø—Ä–∞–≤–ª—è–µ–º –¥–∞–Ω–Ω—ã–µ
  76              		.loc 3 53 9 view .LVU9
  77              		.loc 3 53 18 is_stmt 0 view .LVU10
  78 0010 D860     		str	r0, [r3, #12]
  54:Src/include/SPI_Connection.h **** 
  55:Src/include/SPI_Connection.h ****         while(!(SPI2->SR & SPI_SR_RXNE));   //–∂–¥—ë–º –ø–æ–∫–∞ –ø—Ä–∏–¥—ë—Ç –æ—Ç–≤–µ—Ç
  79              		.loc 3 55 9 is_stmt 1 view .LVU11
ARM GAS  /tmp/cc5ZvWqu.s 			page 4


  80              	.L4:
  81              		.loc 3 55 15 discriminator 1 view .LVU12
  82              		.loc 3 55 23 is_stmt 0 discriminator 1 view .LVU13
  83 0012 9968     		ldr	r1, [r3, #8]
  84              		.loc 3 55 15 discriminator 1 view .LVU14
  85 0014 C907     		lsls	r1, r1, #31
  86 0016 FCD5     		bpl	.L4
  56:Src/include/SPI_Connection.h **** 
  57:Src/include/SPI_Connection.h ****         data = SPI2->DR;                    //—Å—á–∏—Ç—ã–≤–∞–µ–º –ø–æ–ª—É—á–µ–Ω–Ω—ã–µ –¥–∞–Ω–Ω—ã–µ
  87              		.loc 3 57 9 is_stmt 1 view .LVU15
  88              		.loc 3 57 22 is_stmt 0 view .LVU16
  89 0018 DB68     		ldr	r3, [r3, #12]
  90              	.LVL2:
  58:Src/include/SPI_Connection.h **** 
  59:Src/include/SPI_Connection.h ****         CS_HIGH                             //–¥–µ–∞–∫—Ç–∏–≤–∏—Ä—É–µ–º Chip Select
  91              		.loc 3 59 9 is_stmt 1 view .LVU17
  92 001a 4FF48053 		mov	r3, #4096
  93 001e 9361     		str	r3, [r2, #24]
  60:Src/include/SPI_Connection.h **** 
  61:Src/include/SPI_Connection.h ****         return data;                        //–≤–æ–∑–≤—Ä–∞—â–∞–µ–º —Ç–æ, —á—Ç–æ –ø—Ä–æ—á–∏—Ç–∞–ª–∏
  94              		.loc 3 61 9 view .LVU18
  62:Src/include/SPI_Connection.h ****     }
  95              		.loc 3 62 5 is_stmt 0 view .LVU19
  96 0020 7047     		bx	lr
  97              	.L10:
  98 0022 00BF     		.align	2
  99              	.L9:
 100 0024 00380040 		.word	1073756160
 101 0028 00040048 		.word	1207960576
 102              		.cfi_endproc
 103              	.LFE184:
 104              		.cantunwind
 105              		.fnend
 107              		.section	.text._ZN14SPI_Connection16SSD1322_write_CDEhh.isra.0,"ax",%progbits
 108              		.align	1
 109              		.syntax unified
 110              		.thumb
 111              		.thumb_func
 113              	_ZN14SPI_Connection16SSD1322_write_CDEhh.isra.0:
 114              		.fnstart
 115              	.LVL3:
 116              	.LFB185:
  63:Src/include/SPI_Connection.h **** 
  64:Src/include/SPI_Connection.h ****     void SSD1322_write_D(uint8_t data){
  65:Src/include/SPI_Connection.h ****         write_data(0x0100 | data);          //append data to 0x01
  66:Src/include/SPI_Connection.h ****     }
  67:Src/include/SPI_Connection.h **** 
  68:Src/include/SPI_Connection.h ****     void SSD1322_write_C(uint8_t cmd){
  69:Src/include/SPI_Connection.h ****         write_data(cmd);
  70:Src/include/SPI_Connection.h ****     }
  71:Src/include/SPI_Connection.h **** 
  72:Src/include/SPI_Connection.h ****     void SSD1322_write_CD(uint8_t cmd, uint8_t D0) {
 117              		.loc 3 72 10 is_stmt 1 view -0
 118              		.cfi_startproc
 119              		@ args = 0, pretend = 0, frame = 0
 120              		@ frame_needed = 0, uses_anonymous_args = 0
  73:Src/include/SPI_Connection.h **** 
ARM GAS  /tmp/cc5ZvWqu.s 			page 5


  74:Src/include/SPI_Connection.h ****         SSD1322_write_C(cmd);
 121              		.loc 3 74 9 view .LVU21
 122              	.LBB42:
 123              	.LBI42:
  68:Src/include/SPI_Connection.h ****         write_data(cmd);
 124              		.loc 3 68 10 view .LVU22
 125              	.LBB43:
  69:Src/include/SPI_Connection.h ****     }
 126              		.loc 3 69 9 view .LVU23
 127              	.LBE43:
 128              	.LBE42:
  72:Src/include/SPI_Connection.h **** 
 129              		.loc 3 72 10 is_stmt 0 view .LVU24
 130 0000 10B5     		push	{r4, lr}
 131              	.LCFI0:
 132              		.cfi_def_cfa_offset 8
 133              		.cfi_offset 4, -8
 134              		.cfi_offset 14, -4
  72:Src/include/SPI_Connection.h **** 
 135              		.loc 3 72 10 view .LVU25
 136 0002 0C46     		mov	r4, r1
 137              	.LBB45:
 138              	.LBB44:
  69:Src/include/SPI_Connection.h ****     }
 139              		.loc 3 69 19 view .LVU26
 140 0004 FFF7FEFF 		bl	_ZN14SPI_Connection10write_dataEt.isra.0
 141              	.LVL4:
  69:Src/include/SPI_Connection.h ****     }
 142              		.loc 3 69 19 view .LVU27
 143              	.LBE44:
 144              	.LBE45:
  75:Src/include/SPI_Connection.h ****         SSD1322_write_D(D0);
 145              		.loc 3 75 9 is_stmt 1 view .LVU28
 146              	.LBB46:
 147              	.LBI46:
  64:Src/include/SPI_Connection.h ****         write_data(0x0100 | data);          //append data to 0x01
 148              		.loc 3 64 10 view .LVU29
 149              	.LBB47:
  65:Src/include/SPI_Connection.h ****     }
 150              		.loc 3 65 9 view .LVU30
  65:Src/include/SPI_Connection.h ****     }
 151              		.loc 3 65 19 is_stmt 0 view .LVU31
 152 0008 44F48070 		orr	r0, r4, #256
 153              	.LVL5:
  65:Src/include/SPI_Connection.h ****     }
 154              		.loc 3 65 19 view .LVU32
 155              	.LBE47:
 156              	.LBE46:
  76:Src/include/SPI_Connection.h ****     }
 157              		.loc 3 76 5 view .LVU33
 158 000c BDE81040 		pop	{r4, lr}
 159              	.LCFI1:
 160              		.cfi_restore 14
 161              		.cfi_restore 4
 162              		.cfi_def_cfa_offset 0
 163              	.LVL6:
 164              	.LBB49:
ARM GAS  /tmp/cc5ZvWqu.s 			page 6


 165              	.LBB48:
  65:Src/include/SPI_Connection.h ****     }
 166              		.loc 3 65 19 view .LVU34
 167 0010 FFF7FEBF 		b	_ZN14SPI_Connection10write_dataEt.isra.0
 168              	.LVL7:
 169              	.LBE48:
 170              	.LBE49:
 171              		.cfi_endproc
 172              	.LFE185:
 173              		.cantunwind
 174              		.fnend
 176              		.section	.text._ZN14SPI_Connection17SSD1322_write_C2DEhhh.isra.0,"ax",%progbits
 177              		.align	1
 178              		.syntax unified
 179              		.thumb
 180              		.thumb_func
 182              	_ZN14SPI_Connection17SSD1322_write_C2DEhhh.isra.0:
 183              		.fnstart
 184              	.LVL8:
 185              	.LFB187:
  77:Src/include/SPI_Connection.h **** 
  78:Src/include/SPI_Connection.h ****     void SSD1322_write_C2D(uint8_t cmd, uint8_t D0, uint8_t D1) {
 186              		.loc 3 78 10 is_stmt 1 view -0
 187              		.cfi_startproc
 188              		@ args = 0, pretend = 0, frame = 0
 189              		@ frame_needed = 0, uses_anonymous_args = 0
  79:Src/include/SPI_Connection.h **** 
  80:Src/include/SPI_Connection.h ****         SSD1322_write_C(cmd);
 190              		.loc 3 80 9 view .LVU36
 191              	.LBB58:
 192              	.LBI58:
  68:Src/include/SPI_Connection.h ****         write_data(cmd);
 193              		.loc 3 68 10 view .LVU37
 194              	.LBB59:
  69:Src/include/SPI_Connection.h ****     }
 195              		.loc 3 69 9 view .LVU38
 196              	.LBE59:
 197              	.LBE58:
  78:Src/include/SPI_Connection.h **** 
 198              		.loc 3 78 10 is_stmt 0 view .LVU39
 199 0000 38B5     		push	{r3, r4, r5, lr}
 200              	.LCFI2:
 201              		.cfi_def_cfa_offset 16
 202              		.cfi_offset 3, -16
 203              		.cfi_offset 4, -12
 204              		.cfi_offset 5, -8
 205              		.cfi_offset 14, -4
  78:Src/include/SPI_Connection.h **** 
 206              		.loc 3 78 10 view .LVU40
 207 0002 0D46     		mov	r5, r1
 208 0004 1446     		mov	r4, r2
 209              	.LBB61:
 210              	.LBB60:
  69:Src/include/SPI_Connection.h ****     }
 211              		.loc 3 69 19 view .LVU41
 212 0006 FFF7FEFF 		bl	_ZN14SPI_Connection10write_dataEt.isra.0
 213              	.LVL9:
ARM GAS  /tmp/cc5ZvWqu.s 			page 7


  69:Src/include/SPI_Connection.h ****     }
 214              		.loc 3 69 19 view .LVU42
 215              	.LBE60:
 216              	.LBE61:
  81:Src/include/SPI_Connection.h ****         SSD1322_write_D(D0);
 217              		.loc 3 81 9 is_stmt 1 view .LVU43
 218              	.LBB62:
 219              	.LBI62:
  64:Src/include/SPI_Connection.h ****         write_data(0x0100 | data);          //append data to 0x01
 220              		.loc 3 64 10 view .LVU44
 221              	.LBB63:
  65:Src/include/SPI_Connection.h ****     }
 222              		.loc 3 65 9 view .LVU45
  65:Src/include/SPI_Connection.h ****     }
 223              		.loc 3 65 19 is_stmt 0 view .LVU46
 224 000a 45F48070 		orr	r0, r5, #256
 225              	.LVL10:
  65:Src/include/SPI_Connection.h ****     }
 226              		.loc 3 65 19 view .LVU47
 227 000e FFF7FEFF 		bl	_ZN14SPI_Connection10write_dataEt.isra.0
 228              	.LVL11:
  65:Src/include/SPI_Connection.h ****     }
 229              		.loc 3 65 19 view .LVU48
 230              	.LBE63:
 231              	.LBE62:
  82:Src/include/SPI_Connection.h ****         SSD1322_write_D(D1);
 232              		.loc 3 82 9 is_stmt 1 view .LVU49
 233              	.LBB64:
 234              	.LBI64:
  64:Src/include/SPI_Connection.h ****         write_data(0x0100 | data);          //append data to 0x01
 235              		.loc 3 64 10 view .LVU50
 236              	.LBB65:
  65:Src/include/SPI_Connection.h ****     }
 237              		.loc 3 65 9 view .LVU51
  65:Src/include/SPI_Connection.h ****     }
 238              		.loc 3 65 19 is_stmt 0 view .LVU52
 239 0012 44F48070 		orr	r0, r4, #256
 240              	.LBE65:
 241              	.LBE64:
  83:Src/include/SPI_Connection.h ****     }
 242              		.loc 3 83 5 view .LVU53
 243 0016 BDE83840 		pop	{r3, r4, r5, lr}
 244              	.LCFI3:
 245              		.cfi_restore 14
 246              		.cfi_restore 5
 247              		.cfi_restore 4
 248              		.cfi_restore 3
 249              		.cfi_def_cfa_offset 0
 250              	.LVL12:
 251              	.LBB67:
 252              	.LBB66:
  65:Src/include/SPI_Connection.h ****     }
 253              		.loc 3 65 19 view .LVU54
 254 001a FFF7FEBF 		b	_ZN14SPI_Connection10write_dataEt.isra.0
 255              	.LVL13:
 256              	.LBE66:
 257              	.LBE67:
ARM GAS  /tmp/cc5ZvWqu.s 			page 8


 258              		.cfi_endproc
 259              	.LFE187:
 260              		.cantunwind
 261              		.fnend
 263              		.section	.text._ZN5Label8setGlyphEPKhhhhh,"axG",%progbits,_ZN5Label8setGlyphEPKhhhhh,comdat
 264              		.align	1
 265              		.weak	_ZN5Label8setGlyphEPKhhhhh
 266              		.syntax unified
 267              		.thumb
 268              		.thumb_func
 270              	_ZN5Label8setGlyphEPKhhhhh:
 271              		.fnstart
 272              	.LVL14:
 273              	.LFB139:
  41:Src/include/Label.h **** 
  42:Src/include/Label.h ****     uint8_t* getData(){
  43:Src/include/Label.h ****         return data;
  44:Src/include/Label.h ****     }
  45:Src/include/Label.h **** 
  46:Src/include/Label.h ****     void setGlyph(const uint8_t* g, uint8_t w, uint8_t h, uint8_t x, uint8_t y){
 274              		.loc 2 46 10 is_stmt 1 view -0
 275              		.cfi_startproc
 276              		@ args = 8, pretend = 0, frame = 0
 277              		@ frame_needed = 0, uses_anonymous_args = 0
  47:Src/include/Label.h ****         for(uint8_t i = 0; i < h; i++){
 278              		.loc 2 47 9 view .LVU56
  46:Src/include/Label.h ****         for(uint8_t i = 0; i < h; i++){
 279              		.loc 2 46 10 is_stmt 0 view .LVU57
 280 0000 2DE9F047 		push	{r4, r5, r6, r7, r8, r9, r10, lr}
 281              	.LCFI4:
 282              		.cfi_def_cfa_offset 32
 283              		.cfi_offset 4, -32
 284              		.cfi_offset 5, -28
 285              		.cfi_offset 6, -24
 286              		.cfi_offset 7, -20
 287              		.cfi_offset 8, -16
 288              		.cfi_offset 9, -12
 289              		.cfi_offset 10, -8
 290              		.cfi_offset 14, -4
  46:Src/include/Label.h ****         for(uint8_t i = 0; i < h; i++){
 291              		.loc 2 46 10 view .LVU58
 292 0004 9DF82090 		ldrb	r9, [sp, #32]	@ zero_extendqisi2
 293 0008 9DF82480 		ldrb	r8, [sp, #36]	@ zero_extendqisi2
 294              	.LBB68:
 295              		.loc 2 47 21 view .LVU59
 296 000c 0024     		movs	r4, #0
 297              	.LVL15:
 298              	.L14:
 299              		.loc 2 47 30 is_stmt 1 discriminator 1 view .LVU60
 300 000e 9C42     		cmp	r4, r3
 301 0010 16D2     		bcs	.L13
 302 0012 04FB021C 		mla	ip, r4, r2, r1
 303              	.LBB69:
  48:Src/include/Label.h ****             for(uint8_t j = 0; j < w; j++){
  49:Src/include/Label.h ****                 data[x + width/2*(i + y) + j] = g[i*w + j];
 304              		.loc 2 49 52 is_stmt 0 view .LVU61
 305 0016 0026     		movs	r6, #0
ARM GAS  /tmp/cc5ZvWqu.s 			page 9


 306              		.loc 2 49 37 view .LVU62
 307 0018 08EB040E 		add	lr, r8, r4
 308 001c 0AE0     		b	.L17
 309              	.LVL16:
 310              	.L15:
 311              		.loc 2 49 17 is_stmt 1 view .LVU63
 312              		.loc 2 49 31 is_stmt 0 view .LVU64
 313 001e 4579     		ldrb	r5, [r0, #5]	@ zero_extendqisi2
 314              		.loc 2 49 47 view .LVU65
 315 0020 0768     		ldr	r7, [r0]
 316              		.loc 2 49 58 view .LVU66
 317 0022 1CF801AB 		ldrb	r10, [ip], #1	@ zero_extendqisi2
 318              		.loc 2 49 31 view .LVU67
 319 0026 6D08     		lsrs	r5, r5, #1
 320              		.loc 2 49 47 view .LVU68
 321 0028 3744     		add	r7, r7, r6
 322 002a 0EFB0595 		mla	r5, lr, r5, r9
 323 002e 0136     		adds	r6, r6, #1
 324              	.LVL17:
 325              		.loc 2 49 47 view .LVU69
 326 0030 05F807A0 		strb	r10, [r5, r7]
  48:Src/include/Label.h ****             for(uint8_t j = 0; j < w; j++){
 327              		.loc 2 48 13 is_stmt 1 discriminator 3 view .LVU70
 328              	.LVL18:
 329              	.L17:
  48:Src/include/Label.h ****             for(uint8_t j = 0; j < w; j++){
 330              		.loc 2 48 34 discriminator 1 view .LVU71
 331 0034 F5B2     		uxtb	r5, r6
 332 0036 AA42     		cmp	r2, r5
 333 0038 F1D8     		bhi	.L15
 334              	.LBE69:
  47:Src/include/Label.h ****             for(uint8_t j = 0; j < w; j++){
 335              		.loc 2 47 9 discriminator 2 view .LVU72
 336 003a 0134     		adds	r4, r4, #1
 337              	.LVL19:
  47:Src/include/Label.h ****             for(uint8_t j = 0; j < w; j++){
 338              		.loc 2 47 9 is_stmt 0 discriminator 2 view .LVU73
 339 003c E4B2     		uxtb	r4, r4
 340              	.LVL20:
  47:Src/include/Label.h ****             for(uint8_t j = 0; j < w; j++){
 341              		.loc 2 47 9 discriminator 2 view .LVU74
 342 003e E6E7     		b	.L14
 343              	.LVL21:
 344              	.L13:
  47:Src/include/Label.h ****             for(uint8_t j = 0; j < w; j++){
 345              		.loc 2 47 9 discriminator 2 view .LVU75
 346              	.LBE68:
  50:Src/include/Label.h ****             }
  51:Src/include/Label.h ****         }
  52:Src/include/Label.h ****     }
 347              		.loc 2 52 5 view .LVU76
 348 0040 BDE8F087 		pop	{r4, r5, r6, r7, r8, r9, r10, pc}
 349              		.loc 2 52 5 view .LVU77
 350              		.cfi_endproc
 351              	.LFE139:
 352              		.cantunwind
 353              		.fnend
ARM GAS  /tmp/cc5ZvWqu.s 			page 10


 355              		.section	.text._ZN5LabelC2EPhhhhhh,"axG",%progbits,_ZN5LabelC5EPhhhhhh,comdat
 356              		.align	1
 357              		.weak	_ZN5LabelC2EPhhhhhh
 358              		.syntax unified
 359              		.thumb
 360              		.thumb_func
 362              	_ZN5LabelC2EPhhhhhh:
 363              		.fnstart
 364              	.LVL22:
 365              	.LFB133:
  19:Src/include/Label.h ****         data = d;
 366              		.loc 2 19 5 is_stmt 1 view -0
 367              		.cfi_startproc
 368              		@ args = 12, pretend = 0, frame = 0
 369              		@ frame_needed = 0, uses_anonymous_args = 0
 370              	.LBB70:
  20:Src/include/Label.h **** 
 371              		.loc 2 20 9 view .LVU79
 372              	.LBE70:
  19:Src/include/Label.h ****         data = d;
 373              		.loc 2 19 5 is_stmt 0 view .LVU80
 374 0000 73B5     		push	{r0, r1, r4, r5, r6, lr}
 375              	.LCFI5:
 376              		.cfi_def_cfa_offset 24
 377              		.cfi_offset 4, -16
 378              		.cfi_offset 5, -12
 379              		.cfi_offset 6, -8
 380              		.cfi_offset 14, -4
 381              	.LBB72:
  24:Src/include/Label.h ****         height  = h;
 382              		.loc 2 24 17 view .LVU81
 383 0002 4371     		strb	r3, [r0, #5]
  25:Src/include/Label.h **** 
 384              		.loc 2 25 17 view .LVU82
 385 0004 9DF81830 		ldrb	r3, [sp, #24]	@ zero_extendqisi2
 386              	.LVL23:
  32:Src/include/Label.h ****         setGlyph(tf::char_0, 3, 6, 4, 1);
 387              		.loc 2 32 17 view .LVU83
 388 0008 1C4E     		ldr	r6, .L19
  25:Src/include/Label.h **** 
 389              		.loc 2 25 17 view .LVU84
 390 000a 8371     		strb	r3, [r0, #6]
  27:Src/include/Label.h ****         yPos    = y;
 391              		.loc 2 27 17 view .LVU85
 392 000c 9DF81C30 		ldrb	r3, [sp, #28]	@ zero_extendqisi2
 393 0010 C371     		strb	r3, [r0, #7]
  32:Src/include/Label.h ****         setGlyph(tf::char_0, 3, 6, 4, 1);
 394              		.loc 2 32 17 view .LVU86
 395 0012 0125     		movs	r5, #1
  28:Src/include/Label.h **** 
 396              		.loc 2 28 17 view .LVU87
 397 0014 9DF82030 		ldrb	r3, [sp, #32]	@ zero_extendqisi2
  20:Src/include/Label.h **** 
 398              		.loc 2 20 14 view .LVU88
 399 0018 0160     		str	r1, [r0]
  22:Src/include/Label.h **** 
 400              		.loc 2 22 9 is_stmt 1 view .LVU89
ARM GAS  /tmp/cc5ZvWqu.s 			page 11


  22:Src/include/Label.h **** 
 401              		.loc 2 22 17 is_stmt 0 view .LVU90
 402 001a 0271     		strb	r2, [r0, #4]
  24:Src/include/Label.h ****         height  = h;
 403              		.loc 2 24 9 is_stmt 1 view .LVU91
  25:Src/include/Label.h **** 
 404              		.loc 2 25 9 view .LVU92
  27:Src/include/Label.h ****         yPos    = y;
 405              		.loc 2 27 9 view .LVU93
  28:Src/include/Label.h **** 
 406              		.loc 2 28 9 view .LVU94
  28:Src/include/Label.h **** 
 407              		.loc 2 28 17 is_stmt 0 view .LVU95
 408 001c 0372     		strb	r3, [r0, #8]
  30:Src/include/Label.h **** 
 409              		.loc 2 30 9 is_stmt 1 view .LVU96
  32:Src/include/Label.h ****         setGlyph(tf::char_0, 3, 6, 4, 1);
 410              		.loc 2 32 17 is_stmt 0 view .LVU97
 411 001e 3146     		mov	r1, r6
 412              	.LVL24:
  32:Src/include/Label.h ****         setGlyph(tf::char_0, 3, 6, 4, 1);
 413              		.loc 2 32 17 view .LVU98
 414 0020 CDE90055 		strd	r5, r5, [sp]
 415              	.LVL25:
  32:Src/include/Label.h ****         setGlyph(tf::char_0, 3, 6, 4, 1);
 416              		.loc 2 32 17 view .LVU99
 417 0024 0623     		movs	r3, #6
 418 0026 0322     		movs	r2, #3
 419              	.LVL26:
  32:Src/include/Label.h ****         setGlyph(tf::char_0, 3, 6, 4, 1);
 420              		.loc 2 32 17 view .LVU100
 421              	.LBE72:
  19:Src/include/Label.h ****         data = d;
 422              		.loc 2 19 5 view .LVU101
 423 0028 0446     		mov	r4, r0
 424              	.LVL27:
 425              	.LBB73:
 426              	.LBB71:
 427              	.LBI71:
  53:Src/include/Label.h **** 
  54:Src/include/Label.h ****     void invert(){
 428              		.loc 2 54 10 is_stmt 1 view .LVU102
  55:Src/include/Label.h ****         for(uint16_t i = 0; i < dataLen; i++){
 429              		.loc 2 55 9 view .LVU103
 430              		.loc 2 55 9 is_stmt 0 view .LVU104
 431              	.LBE71:
  32:Src/include/Label.h ****         setGlyph(tf::char_0, 3, 6, 4, 1);
 432              		.loc 2 32 9 is_stmt 1 view .LVU105
  32:Src/include/Label.h ****         setGlyph(tf::char_0, 3, 6, 4, 1);
 433              		.loc 2 32 17 is_stmt 0 view .LVU106
 434 002a FFF7FEFF 		bl	_ZN5Label8setGlyphEPKhhhhh
 435              	.LVL28:
  33:Src/include/Label.h ****         setGlyph(tf::char_0, 3, 6, 7, 1);
 436              		.loc 2 33 9 is_stmt 1 view .LVU107
  33:Src/include/Label.h ****         setGlyph(tf::char_0, 3, 6, 7, 1);
 437              		.loc 2 33 17 is_stmt 0 view .LVU108
 438 002e 0423     		movs	r3, #4
ARM GAS  /tmp/cc5ZvWqu.s 			page 12


 439 0030 0093     		str	r3, [sp]
 440 0032 3146     		mov	r1, r6
 441 0034 2046     		mov	r0, r4
 442 0036 0195     		str	r5, [sp, #4]
 443 0038 0623     		movs	r3, #6
 444 003a 0322     		movs	r2, #3
 445 003c FFF7FEFF 		bl	_ZN5Label8setGlyphEPKhhhhh
 446              	.LVL29:
  34:Src/include/Label.h ****         setGlyph(tf::char_0, 3, 6, 10, 1);
 447              		.loc 2 34 9 is_stmt 1 view .LVU109
  34:Src/include/Label.h ****         setGlyph(tf::char_0, 3, 6, 10, 1);
 448              		.loc 2 34 17 is_stmt 0 view .LVU110
 449 0040 0723     		movs	r3, #7
 450 0042 0093     		str	r3, [sp]
 451 0044 3146     		mov	r1, r6
 452 0046 2046     		mov	r0, r4
 453 0048 0195     		str	r5, [sp, #4]
 454 004a 0623     		movs	r3, #6
 455 004c 0322     		movs	r2, #3
 456 004e FFF7FEFF 		bl	_ZN5Label8setGlyphEPKhhhhh
 457              	.LVL30:
  35:Src/include/Label.h ****         setGlyph(tf::char_0, 3, 6, 13, 1);
 458              		.loc 2 35 9 is_stmt 1 view .LVU111
  35:Src/include/Label.h ****         setGlyph(tf::char_0, 3, 6, 13, 1);
 459              		.loc 2 35 17 is_stmt 0 view .LVU112
 460 0052 0A23     		movs	r3, #10
 461 0054 0093     		str	r3, [sp]
 462 0056 3146     		mov	r1, r6
 463 0058 2046     		mov	r0, r4
 464 005a 0195     		str	r5, [sp, #4]
 465 005c 0623     		movs	r3, #6
 466 005e 0322     		movs	r2, #3
 467 0060 FFF7FEFF 		bl	_ZN5Label8setGlyphEPKhhhhh
 468              	.LVL31:
  36:Src/include/Label.h **** 
 469              		.loc 2 36 9 is_stmt 1 view .LVU113
  36:Src/include/Label.h **** 
 470              		.loc 2 36 17 is_stmt 0 view .LVU114
 471 0064 0D23     		movs	r3, #13
 472 0066 0093     		str	r3, [sp]
 473 0068 2046     		mov	r0, r4
 474 006a 0195     		str	r5, [sp, #4]
 475 006c 0623     		movs	r3, #6
 476 006e 0322     		movs	r2, #3
 477 0070 3146     		mov	r1, r6
 478 0072 FFF7FEFF 		bl	_ZN5Label8setGlyphEPKhhhhh
 479              	.LVL32:
 480              	.LBE73:
  38:Src/include/Label.h **** 
 481              		.loc 2 38 5 view .LVU115
 482 0076 2046     		mov	r0, r4
 483 0078 02B0     		add	sp, sp, #8
 484              	.LCFI6:
 485              		.cfi_def_cfa_offset 16
 486              		@ sp needed
 487 007a 70BD     		pop	{r4, r5, r6, pc}
 488              	.LVL33:
ARM GAS  /tmp/cc5ZvWqu.s 			page 13


 489              	.L20:
  38:Src/include/Label.h **** 
 490              		.loc 2 38 5 view .LVU116
 491              		.align	2
 492              	.L19:
 493 007c 00000000 		.word	_ZN2tfL6char_0E
 494              		.cfi_endproc
 495              	.LFE133:
 496              		.cantunwind
 497              		.fnend
 499              		.weak	_ZN5LabelC1EPhhhhhh
 500              		.thumb_set _ZN5LabelC1EPhhhhhh,_ZN5LabelC2EPhhhhhh
 501              		.section	.text._ZN14SPI_ConnectionC2Ev,"axG",%progbits,_ZN14SPI_ConnectionC5Ev,comdat
 502              		.align	1
 503              		.weak	_ZN14SPI_ConnectionC2Ev
 504              		.syntax unified
 505              		.thumb
 506              		.thumb_func
 508              	_ZN14SPI_ConnectionC2Ev:
 509              		.fnstart
 510              	.LVL34:
 511              	.LFB142:
  17:Src/include/SPI_Connection.h ****         RCC->AHB2ENR  |= RCC_AHB2ENR_GPIOBEN;   // –≤–∫–ª—é—á–∞–µ–º —Ç–∞–∫—Ç–∏—Ä–æ–≤–∞–Ω–∏–µ PortB
 512              		.loc 3 17 5 is_stmt 1 view -0
 513              		.cfi_startproc
 514              		@ args = 0, pretend = 0, frame = 0
 515              		@ frame_needed = 0, uses_anonymous_args = 0
 516              		@ link register save eliminated.
 517              	.LBB74:
  18:Src/include/SPI_Connection.h **** 
 518              		.loc 3 18 9 view .LVU118
  18:Src/include/SPI_Connection.h **** 
 519              		.loc 3 18 14 is_stmt 0 view .LVU119
 520 0000 2049     		ldr	r1, .L24
 521 0002 CB6C     		ldr	r3, [r1, #76]
  18:Src/include/SPI_Connection.h **** 
 522              		.loc 3 18 23 view .LVU120
 523 0004 43F00203 		orr	r3, r3, #2
 524 0008 CB64     		str	r3, [r1, #76]
  20:Src/include/SPI_Connection.h ****         GPIOB->MODER  |=  (GPIO_MODER_MODE12_0 | GPIO_MODER_MODE13_1 | GPIO_MODER_MODE14_0 | GPIO_M
 525              		.loc 3 20 9 is_stmt 1 view .LVU121
  20:Src/include/SPI_Connection.h ****         GPIOB->MODER  |=  (GPIO_MODER_MODE12_0 | GPIO_MODER_MODE13_1 | GPIO_MODER_MODE14_0 | GPIO_M
 526              		.loc 3 20 16 is_stmt 0 view .LVU122
 527 000a 1F4B     		ldr	r3, .L24+4
 528 000c 1A68     		ldr	r2, [r3]
  20:Src/include/SPI_Connection.h ****         GPIOB->MODER  |=  (GPIO_MODER_MODE12_0 | GPIO_MODER_MODE13_1 | GPIO_MODER_MODE14_0 | GPIO_M
 529              		.loc 3 20 23 view .LVU123
 530 000e 22F07F42 		bic	r2, r2, #-16777216
 531 0012 1A60     		str	r2, [r3]
  21:Src/include/SPI_Connection.h ****         GPIOB->AFR[1] &= ~( GPIO_AFRH_AFSEL13   | GPIO_AFRH_AFSEL15 );                             
 532              		.loc 3 21 9 is_stmt 1 view .LVU124
  21:Src/include/SPI_Connection.h ****         GPIOB->AFR[1] &= ~( GPIO_AFRH_AFSEL13   | GPIO_AFRH_AFSEL15 );                             
 533              		.loc 3 21 16 is_stmt 0 view .LVU125
 534 0014 1A68     		ldr	r2, [r3]
  21:Src/include/SPI_Connection.h ****         GPIOB->AFR[1] &= ~( GPIO_AFRH_AFSEL13   | GPIO_AFRH_AFSEL15 );                             
 535              		.loc 3 21 23 view .LVU126
 536 0016 42F01942 		orr	r2, r2, #-1728053248
ARM GAS  /tmp/cc5ZvWqu.s 			page 14


 537 001a 1A60     		str	r2, [r3]
  22:Src/include/SPI_Connection.h ****         GPIOB->AFR[1] |=  ( GPIO_AFRH_AFSEL13_2 | GPIO_AFRH_AFSEL13_0 | GPIO_AFRH_AFSEL15_2 | GPIO_
 538              		.loc 3 22 9 is_stmt 1 view .LVU127
  22:Src/include/SPI_Connection.h ****         GPIOB->AFR[1] |=  ( GPIO_AFRH_AFSEL13_2 | GPIO_AFRH_AFSEL13_0 | GPIO_AFRH_AFSEL15_2 | GPIO_
 539              		.loc 3 22 21 is_stmt 0 view .LVU128
 540 001c 5A6A     		ldr	r2, [r3, #36]
  22:Src/include/SPI_Connection.h ****         GPIOB->AFR[1] |=  ( GPIO_AFRH_AFSEL13_2 | GPIO_AFRH_AFSEL13_0 | GPIO_AFRH_AFSEL15_2 | GPIO_
 541              		.loc 3 22 23 view .LVU129
 542 001e 22F07042 		bic	r2, r2, #-268435456
 543 0022 22F47002 		bic	r2, r2, #15728640
 544 0026 5A62     		str	r2, [r3, #36]
  23:Src/include/SPI_Connection.h **** 
 545              		.loc 3 23 9 is_stmt 1 view .LVU130
  23:Src/include/SPI_Connection.h **** 
 546              		.loc 3 23 21 is_stmt 0 view .LVU131
 547 0028 5A6A     		ldr	r2, [r3, #36]
  23:Src/include/SPI_Connection.h **** 
 548              		.loc 3 23 23 view .LVU132
 549 002a 42F0A042 		orr	r2, r2, #1342177280
 550 002e 42F4A002 		orr	r2, r2, #5242880
 551 0032 5A62     		str	r2, [r3, #36]
  25:Src/include/SPI_Connection.h **** 
 552              		.loc 3 25 9 is_stmt 1 view .LVU133
  25:Src/include/SPI_Connection.h **** 
 553              		.loc 3 25 16 is_stmt 0 view .LVU134
 554 0034 9A69     		ldr	r2, [r3, #24]
  25:Src/include/SPI_Connection.h **** 
 555              		.loc 3 25 21 view .LVU135
 556 0036 42F08042 		orr	r2, r2, #1073741824
 557 003a 9A61     		str	r2, [r3, #24]
  27:Src/include/SPI_Connection.h **** 
 558              		.loc 3 27 9 is_stmt 1 view .LVU136
  27:Src/include/SPI_Connection.h **** 
 559              		.loc 3 27 14 is_stmt 0 view .LVU137
 560 003c 8A6D     		ldr	r2, [r1, #88]
  27:Src/include/SPI_Connection.h **** 
 561              		.loc 3 27 23 view .LVU138
 562 003e 42F48042 		orr	r2, r2, #16384
 563 0042 8A65     		str	r2, [r1, #88]
  29:Src/include/SPI_Connection.h ****         SPI2->CR2 |= SPI_CR2_DS_3;              // –¥–ª–∏–Ω–∞ —Ñ—Ä–µ–π–º–∞ 9-–±–∏—Ç
 564              		.loc 3 29 9 is_stmt 1 view .LVU139
  29:Src/include/SPI_Connection.h ****         SPI2->CR2 |= SPI_CR2_DS_3;              // –¥–ª–∏–Ω–∞ —Ñ—Ä–µ–π–º–∞ 9-–±–∏—Ç
 565              		.loc 3 29 15 is_stmt 0 view .LVU140
 566 0044 114A     		ldr	r2, .L24+8
 567 0046 1168     		ldr	r1, [r2]
  29:Src/include/SPI_Connection.h ****         SPI2->CR2 |= SPI_CR2_DS_3;              // –¥–ª–∏–Ω–∞ —Ñ—Ä–µ–π–º–∞ 9-–±–∏—Ç
 568              		.loc 3 29 19 view .LVU141
 569 0048 41F44771 		orr	r1, r1, #796
 570 004c 41F00301 		orr	r1, r1, #3
 571 0050 1160     		str	r1, [r2]
  30:Src/include/SPI_Connection.h ****         SPI2->CR2 &= ~(SPI_CR2_DS_0 | SPI_CR2_DS_1 | SPI_CR2_DS_2);
 572              		.loc 3 30 9 is_stmt 1 view .LVU142
  30:Src/include/SPI_Connection.h ****         SPI2->CR2 &= ~(SPI_CR2_DS_0 | SPI_CR2_DS_1 | SPI_CR2_DS_2);
 573              		.loc 3 30 15 is_stmt 0 view .LVU143
 574 0052 5168     		ldr	r1, [r2, #4]
  30:Src/include/SPI_Connection.h ****         SPI2->CR2 &= ~(SPI_CR2_DS_0 | SPI_CR2_DS_1 | SPI_CR2_DS_2);
 575              		.loc 3 30 19 view .LVU144
ARM GAS  /tmp/cc5ZvWqu.s 			page 15


 576 0054 41F40061 		orr	r1, r1, #2048
 577 0058 5160     		str	r1, [r2, #4]
  31:Src/include/SPI_Connection.h **** 
 578              		.loc 3 31 9 is_stmt 1 view .LVU145
  31:Src/include/SPI_Connection.h **** 
 579              		.loc 3 31 15 is_stmt 0 view .LVU146
 580 005a 5168     		ldr	r1, [r2, #4]
  31:Src/include/SPI_Connection.h **** 
 581              		.loc 3 31 19 view .LVU147
 582 005c 21F4E061 		bic	r1, r1, #1792
 583 0060 5160     		str	r1, [r2, #4]
  33:Src/include/SPI_Connection.h **** 
 584              		.loc 3 33 9 is_stmt 1 view .LVU148
 585 0062 4FF48051 		mov	r1, #4096
 586 0066 9961     		str	r1, [r3, #24]
  35:Src/include/SPI_Connection.h **** 
 587              		.loc 3 35 9 view .LVU149
  35:Src/include/SPI_Connection.h **** 
 588              		.loc 3 35 15 is_stmt 0 view .LVU150
 589 0068 1168     		ldr	r1, [r2]
  35:Src/include/SPI_Connection.h **** 
 590              		.loc 3 35 19 view .LVU151
 591 006a 41F04001 		orr	r1, r1, #64
 592 006e 1160     		str	r1, [r2]
  37:Src/include/SPI_Connection.h ****             __NOP();
 593              		.loc 3 37 9 is_stmt 1 view .LVU152
 594              	.LVL35:
 595              	.LBB75:
  37:Src/include/SPI_Connection.h ****             __NOP();
 596              		.loc 3 37 35 discriminator 1 view .LVU153
 597              	.LBE75:
  35:Src/include/SPI_Connection.h **** 
 598              		.loc 3 35 19 is_stmt 0 view .LVU154
 599 0070 4FF4FA72 		mov	r2, #500
 600              	.LVL36:
 601              	.L22:
 602              	.LBB76:
  38:Src/include/SPI_Connection.h ****         }
 603              		.loc 3 38 13 is_stmt 1 view .LVU155
 604              		.syntax unified
 605              	@ 38 "Src/include/SPI_Connection.h" 1
 606 0074 00BF     		nop
 607              	@ 0 "" 2
  37:Src/include/SPI_Connection.h ****             __NOP();
 608              		.loc 3 37 9 discriminator 3 view .LVU156
 609              	.LVL37:
  37:Src/include/SPI_Connection.h ****             __NOP();
 610              		.loc 3 37 35 discriminator 1 view .LVU157
 611              		.thumb
 612              		.syntax unified
 613 0076 013A     		subs	r2, r2, #1
 614              	.LVL38:
  37:Src/include/SPI_Connection.h ****             __NOP();
 615              		.loc 3 37 35 is_stmt 0 discriminator 1 view .LVU158
 616 0078 FCD1     		bne	.L22
 617              	.LBE76:
  41:Src/include/SPI_Connection.h ****     }
ARM GAS  /tmp/cc5ZvWqu.s 			page 16


 618              		.loc 3 41 9 is_stmt 1 view .LVU159
  41:Src/include/SPI_Connection.h ****     }
 619              		.loc 3 41 16 is_stmt 0 view .LVU160
 620 007a 9A69     		ldr	r2, [r3, #24]
 621              	.LVL39:
  41:Src/include/SPI_Connection.h ****     }
 622              		.loc 3 41 21 view .LVU161
 623 007c 42F48042 		orr	r2, r2, #16384
 624 0080 9A61     		str	r2, [r3, #24]
 625              	.LBE74:
  42:Src/include/SPI_Connection.h **** 
 626              		.loc 3 42 5 view .LVU162
 627 0082 7047     		bx	lr
 628              	.L25:
 629              		.align	2
 630              	.L24:
 631 0084 00100240 		.word	1073876992
 632 0088 00040048 		.word	1207960576
 633 008c 00380040 		.word	1073756160
 634              		.cfi_endproc
 635              	.LFE142:
 636              		.cantunwind
 637              		.fnend
 639              		.weak	_ZN14SPI_ConnectionC1Ev
 640              		.thumb_set _ZN14SPI_ConnectionC1Ev,_ZN14SPI_ConnectionC2Ev
 641              		.section	.text._ZN13ScreenControl13assembleFrameEv,"axG",%progbits,_ZN13ScreenControl13assembleFra
 642              		.align	1
 643              		.weak	_ZN13ScreenControl13assembleFrameEv
 644              		.syntax unified
 645              		.thumb
 646              		.thumb_func
 648              	_ZN13ScreenControl13assembleFrameEv:
 649              		.fnstart
 650              	.LVL40:
 651              	.LFB161:
 652              		.file 4 "Src/include/ScreenControl.h"
   1:Src/include/ScreenControl.h **** #ifndef SCREEN_CONTROL_H
   2:Src/include/ScreenControl.h **** #define SCREEN_CONTROL_H
   3:Src/include/ScreenControl.h **** 
   4:Src/include/ScreenControl.h **** //#include <vector>
   5:Src/include/ScreenControl.h **** 
   6:Src/include/ScreenControl.h **** #include <stm32g474xx.h>
   7:Src/include/ScreenControl.h **** 
   8:Src/include/ScreenControl.h **** #include "Label.h"
   9:Src/include/ScreenControl.h **** #include "SPI_Connection.h"
  10:Src/include/ScreenControl.h **** 
  11:Src/include/ScreenControl.h **** //add pages later
  12:Src/include/ScreenControl.h **** 
  13:Src/include/ScreenControl.h ****         uint8_t t = 8 * 32 / 2;
  14:Src/include/ScreenControl.h ****         //array is stored as uint8_t reversed pairs
  15:Src/include/ScreenControl.h ****         uint8_t testData[8*32/2] = {0x00, 0x00, 0x00, 0x00,     0x00, 0x00, 0x00, 0x00,    0x00, 0x
  16:Src/include/ScreenControl.h ****                                     0x00, 0x00, 0x00, 0x00,     0x00, 0x00, 0x00, 0x00,    0x00, 0x
  17:Src/include/ScreenControl.h ****                                     0x00, 0x00, 0x00, 0x00,     0x00, 0x00, 0x00, 0x00,    0x00, 0x
  18:Src/include/ScreenControl.h ****                                     0x00, 0x00, 0x00, 0x00,     0x00, 0x00, 0x00, 0x00,    0x00, 0x
  19:Src/include/ScreenControl.h ****                                     0x00, 0x00, 0x00, 0x00,     0x00, 0x00, 0x00, 0x00,    0x00, 0x
  20:Src/include/ScreenControl.h ****                                     0x00, 0x00, 0x00, 0x00,     0x00, 0x00, 0x00, 0x00,    0x00, 0x
  21:Src/include/ScreenControl.h ****                                     0x00, 0x00, 0x00, 0x00,     0x00, 0x00, 0x00, 0x00,    0x00, 0x
ARM GAS  /tmp/cc5ZvWqu.s 			page 17


  22:Src/include/ScreenControl.h ****                                     0x00, 0x00, 0x00, 0x00,     0x00, 0x00, 0x00, 0x00,    0x00, 0x
  23:Src/include/ScreenControl.h ****                                     };
  24:Src/include/ScreenControl.h **** 
  25:Src/include/ScreenControl.h ****         uint8_t testData2[8*32/2] = {0xFF, 0xFF, 0xFF, 0xFF, 0xFF, 0xFF, 0xFF, 0xFF, 0xFF, 0xFF, 0x
  26:Src/include/ScreenControl.h ****                                     0xFF, 0xFF, 0xFF, 0xFF, 0xFF, 0xFF, 0xFF, 0xFF, 0xFF, 0xFF, 0xF
  27:Src/include/ScreenControl.h ****                                     0xFF, 0xFF, 0xFF, 0xFF, 0xFF, 0xFF, 0xFF, 0xFF, 0xFF, 0xFF, 0xF
  28:Src/include/ScreenControl.h ****                                     0xFF, 0xFF, 0xFF, 0xFF, 0xFF, 0xFF, 0xFF, 0xFF, 0xFF, 0xFF, 0xF
  29:Src/include/ScreenControl.h ****                                     0xFF, 0xFF, 0xFF, 0xFF, 0xFF, 0xFF, 0xFF, 0xFF, 0xFF, 0xFF, 0xF
  30:Src/include/ScreenControl.h ****                                     0xFF, 0xFF, 0xFF, 0xFF, 0xFF, 0xFF, 0xFF, 0xFF, 0xFF, 0xFF, 0xF
  31:Src/include/ScreenControl.h ****                                     0xFF, 0xFF, 0xFF, 0xFF, 0xFF, 0xFF, 0xFF, 0xFF, 0xFF, 0xFF, 0xF
  32:Src/include/ScreenControl.h ****                                     0xFF, 0xFF, 0xFF, 0xFF, 0xFF, 0xFF, 0xFF, 0xFF, 0xFF, 0xFF, 0xF
  33:Src/include/ScreenControl.h ****                                     };
  34:Src/include/ScreenControl.h **** 
  35:Src/include/ScreenControl.h ****         Label l1(testData, t, 32, 8, 0, 0);
  36:Src/include/ScreenControl.h ****         //data corruption as l2-l4 are bound to the same data plane
  37:Src/include/ScreenControl.h ****         Label l2(testData2, t, 16, 8, 0, 32);
  38:Src/include/ScreenControl.h ****         Label l3(testData2, t, 32, 8, 64, 0);
  39:Src/include/ScreenControl.h ****         Label l4(testData2, t, 32, 4, 64, 32);
  40:Src/include/ScreenControl.h **** 
  41:Src/include/ScreenControl.h **** class ScreenControl{
  42:Src/include/ScreenControl.h **** private:
  43:Src/include/ScreenControl.h ****     SPI_Connection* connection = nullptr;
  44:Src/include/ScreenControl.h **** 
  45:Src/include/ScreenControl.h ****     const uint8_t labelNum = 4;
  46:Src/include/ScreenControl.h ****     Label* page_1[4] = {nullptr, nullptr, nullptr, nullptr};
  47:Src/include/ScreenControl.h **** 
  48:Src/include/ScreenControl.h ****     const uint16_t dataLen = 256*64/2;
  49:Src/include/ScreenControl.h ****     uint8_t visualData[256*64/2] = {0};
  50:Src/include/ScreenControl.h **** 
  51:Src/include/ScreenControl.h ****     const uint8_t screenWidth   = 256/2;
  52:Src/include/ScreenControl.h ****     const uint8_t screenHeight  = 64;
  53:Src/include/ScreenControl.h **** 
  54:Src/include/ScreenControl.h **** public:
  55:Src/include/ScreenControl.h ****     ScreenControl(SPI_Connection* c){
  56:Src/include/ScreenControl.h ****         connection = c;
  57:Src/include/ScreenControl.h **** 
  58:Src/include/ScreenControl.h ****         //testing
  59:Src/include/ScreenControl.h **** 
  60:Src/include/ScreenControl.h ****         page_1[0] = &l1;
  61:Src/include/ScreenControl.h ****         page_1[1] = &l2;
  62:Src/include/ScreenControl.h ****         page_1[2] = &l3;
  63:Src/include/ScreenControl.h ****         page_1[3] = &l4;
  64:Src/include/ScreenControl.h **** 
  65:Src/include/ScreenControl.h ****     }
  66:Src/include/ScreenControl.h ****     ~ScreenControl(){}
  67:Src/include/ScreenControl.h **** 
  68:Src/include/ScreenControl.h ****     void placeLabel(Label* label){
  69:Src/include/ScreenControl.h ****         //uint8_t c = 0;
  70:Src/include/ScreenControl.h ****         for(uint8_t i = 0; i < label->height; i++){
  71:Src/include/ScreenControl.h ****             for(uint8_t j = 0; j < label->width/2; j++){
  72:Src/include/ScreenControl.h ****                 visualData[dataLen - 1 - (label->xPos/2 + label->yPos*screenWidth + i*screenWidth +
  73:Src/include/ScreenControl.h ****                 visualData[dataLen - 1 - (label->xPos/2 + label->yPos*screenWidth + i*screenWidth +
  74:Src/include/ScreenControl.h ****                 j++;
  75:Src/include/ScreenControl.h ****             }
  76:Src/include/ScreenControl.h ****         }
  77:Src/include/ScreenControl.h ****     }
  78:Src/include/ScreenControl.h **** 
ARM GAS  /tmp/cc5ZvWqu.s 			page 18


  79:Src/include/ScreenControl.h ****     void assembleFrame(){ //combine /w placeLabel()
 653              		.loc 4 79 10 is_stmt 1 view -0
 654              		.cfi_startproc
 655              		@ args = 0, pretend = 0, frame = 8
 656              		@ frame_needed = 0, uses_anonymous_args = 0
  80:Src/include/ScreenControl.h ****         for(uint16_t i = 0; i < labelNum; i++){
 657              		.loc 4 80 9 view .LVU164
  79:Src/include/ScreenControl.h ****         for(uint16_t i = 0; i < labelNum; i++){
 658              		.loc 4 79 10 is_stmt 0 view .LVU165
 659 0000 2DE9F74F 		push	{r0, r1, r2, r4, r5, r6, r7, r8, r9, r10, fp, lr}
 660              	.LCFI7:
 661              		.cfi_def_cfa_offset 48
 662              		.cfi_offset 4, -36
 663              		.cfi_offset 5, -32
 664              		.cfi_offset 6, -28
 665              		.cfi_offset 7, -24
 666              		.cfi_offset 8, -20
 667              		.cfi_offset 9, -16
 668              		.cfi_offset 10, -12
 669              		.cfi_offset 11, -8
 670              		.cfi_offset 14, -4
 671              	.LBB82:
 672              		.loc 4 80 31 discriminator 1 view .LVU166
 673 0004 0646     		mov	r6, r0
 674              		.loc 4 80 9 view .LVU167
 675 0006 4FF0000C 		mov	ip, #0
 676              		.loc 4 80 31 discriminator 1 view .LVU168
 677 000a 16F8043F 		ldrb	r3, [r6, #4]!	@ zero_extendqisi2
 678 000e 0193     		str	r3, [sp, #4]
 679              	.LBB83:
 680              	.LBB84:
 681              	.LBB85:
  72:Src/include/ScreenControl.h ****                 visualData[dataLen - 1 - (label->xPos/2 + label->yPos*screenWidth + i*screenWidth +
 682              		.loc 4 72 71 view .LVU169
 683 0010 00F50059 		add	r9, r0, #8192
 684              	.LVL41:
 685              	.L27:
  72:Src/include/ScreenControl.h ****                 visualData[dataLen - 1 - (label->xPos/2 + label->yPos*screenWidth + i*screenWidth +
 686              		.loc 4 72 71 view .LVU170
 687              	.LBE85:
 688              	.LBE84:
 689              	.LBE83:
 690              		.loc 4 80 31 is_stmt 1 discriminator 1 view .LVU171
 691 0014 019A     		ldr	r2, [sp, #4]
 692 0016 1FFA8CF3 		uxth	r3, ip
 693 001a 9A42     		cmp	r2, r3
 694 001c 02D8     		bhi	.L31
 695              	.LBE82:
  81:Src/include/ScreenControl.h ****             placeLabel(page_1[i]);
  82:Src/include/ScreenControl.h ****         }
  83:Src/include/ScreenControl.h ****     }
 696              		.loc 4 83 5 is_stmt 0 view .LVU172
 697 001e 03B0     		add	sp, sp, #12
 698              	.LCFI8:
 699              		.cfi_remember_state
 700              		.cfi_def_cfa_offset 36
 701              		@ sp needed
ARM GAS  /tmp/cc5ZvWqu.s 			page 19


 702 0020 BDE8F08F 		pop	{r4, r5, r6, r7, r8, r9, r10, fp, pc}
 703              	.L31:
 704              	.LCFI9:
 705              		.cfi_restore_state
 706              	.LBB91:
  81:Src/include/ScreenControl.h ****             placeLabel(page_1[i]);
 707              		.loc 4 81 13 is_stmt 1 view .LVU173
  81:Src/include/ScreenControl.h ****             placeLabel(page_1[i]);
 708              		.loc 4 81 23 is_stmt 0 view .LVU174
 709 0024 56F8043F 		ldr	r3, [r6, #4]!
 710              	.LVL42:
 711              	.LBB89:
 712              	.LBI83:
  68:Src/include/ScreenControl.h ****         //uint8_t c = 0;
 713              		.loc 4 68 10 is_stmt 1 view .LVU175
  70:Src/include/ScreenControl.h ****             for(uint8_t j = 0; j < label->width/2; j++){
 714              		.loc 4 70 9 view .LVU176
 715              	.LBB87:
  70:Src/include/ScreenControl.h ****             for(uint8_t j = 0; j < label->width/2; j++){
 716              		.loc 4 70 9 is_stmt 0 view .LVU177
 717 0028 4FF0000E 		mov	lr, #0
 718              	.LVL43:
 719              	.L28:
  70:Src/include/ScreenControl.h ****             for(uint8_t j = 0; j < label->width/2; j++){
 720              		.loc 4 70 30 is_stmt 1 discriminator 1 view .LVU178
 721 002c 9A79     		ldrb	r2, [r3, #6]	@ zero_extendqisi2
 722 002e 5FFA8EF7 		uxtb	r7, lr
 723 0032 BA42     		cmp	r2, r7
 724 0034 38D8     		bhi	.L32
 725              	.LVL44:
  70:Src/include/ScreenControl.h ****             for(uint8_t j = 0; j < label->width/2; j++){
 726              		.loc 4 70 30 is_stmt 0 discriminator 1 view .LVU179
 727              	.LBE87:
 728              	.LBE89:
  80:Src/include/ScreenControl.h ****             placeLabel(page_1[i]);
 729              		.loc 4 80 9 is_stmt 1 discriminator 3 view .LVU180
  80:Src/include/ScreenControl.h ****             placeLabel(page_1[i]);
 730              		.loc 4 80 9 is_stmt 0 discriminator 3 view .LVU181
 731 0036 0CF1010C 		add	ip, ip, #1
 732              	.LVL45:
  80:Src/include/ScreenControl.h ****             placeLabel(page_1[i]);
 733              		.loc 4 80 9 discriminator 3 view .LVU182
 734 003a EBE7     		b	.L27
 735              	.LVL46:
 736              	.L29:
 737              	.LBB90:
 738              	.LBB88:
 739              	.LBB86:
  72:Src/include/ScreenControl.h ****                 visualData[dataLen - 1 - (label->xPos/2 + label->yPos*screenWidth + i*screenWidth +
 740              		.loc 4 72 17 is_stmt 1 view .LVU183
  72:Src/include/ScreenControl.h ****                 visualData[dataLen - 1 - (label->xPos/2 + label->yPos*screenWidth + i*screenWidth +
 741              		.loc 4 72 120 is_stmt 0 view .LVU184
 742 003c 07FB02F4 		mul	r4, r7, r2
  72:Src/include/ScreenControl.h ****                 visualData[dataLen - 1 - (label->xPos/2 + label->yPos*screenWidth + i*screenWidth +
 743              		.loc 4 72 143 view .LVU185
 744 0040 1A68     		ldr	r2, [r3]
  72:Src/include/ScreenControl.h ****                 visualData[dataLen - 1 - (label->xPos/2 + label->yPos*screenWidth + i*screenWidth +
ARM GAS  /tmp/cc5ZvWqu.s 			page 20


 745              		.loc 4 72 71 view .LVU186
 746 0042 99F81A80 		ldrb	r8, [r9, #26]	@ zero_extendqisi2
  72:Src/include/ScreenControl.h ****                 visualData[dataLen - 1 - (label->xPos/2 + label->yPos*screenWidth + i*screenWidth +
 747              		.loc 4 72 70 view .LVU187
 748 0046 93F808B0 		ldrb	fp, [r3, #8]	@ zero_extendqisi2
  72:Src/include/ScreenControl.h ****                 visualData[dataLen - 1 - (label->xPos/2 + label->yPos*screenWidth + i*screenWidth +
 749              		.loc 4 72 28 view .LVU188
 750 004a 018B     		ldrh	r1, [r0, #24]
  72:Src/include/ScreenControl.h ****                 visualData[dataLen - 1 - (label->xPos/2 + label->yPos*screenWidth + i*screenWidth +
 751              		.loc 4 72 143 view .LVU189
 752 004c 2A44     		add	r2, r2, r5
 753 004e 02EB6402 		add	r2, r2, r4, asr #1
  72:Src/include/ScreenControl.h ****                 visualData[dataLen - 1 - (label->xPos/2 + label->yPos*screenWidth + i*screenWidth +
 754              		.loc 4 72 40 view .LVU190
 755 0052 07FB0854 		mla	r4, r7, r8, r5
  72:Src/include/ScreenControl.h ****                 visualData[dataLen - 1 - (label->xPos/2 + label->yPos*screenWidth + i*screenWidth +
 756              		.loc 4 72 143 view .LVU191
 757 0056 92F801A0 		ldrb	r10, [r2, #1]	@ zero_extendqisi2
  72:Src/include/ScreenControl.h ****                 visualData[dataLen - 1 - (label->xPos/2 + label->yPos*screenWidth + i*screenWidth +
 758              		.loc 4 72 54 view .LVU192
 759 005a DA79     		ldrb	r2, [r3, #7]	@ zero_extendqisi2
  72:Src/include/ScreenControl.h ****                 visualData[dataLen - 1 - (label->xPos/2 + label->yPos*screenWidth + i*screenWidth +
 760              		.loc 4 72 40 view .LVU193
 761 005c 04EB5202 		add	r2, r4, r2, lsr #1
  72:Src/include/ScreenControl.h ****                 visualData[dataLen - 1 - (label->xPos/2 + label->yPos*screenWidth + i*screenWidth +
 762              		.loc 4 72 36 view .LVU194
 763 0060 0139     		subs	r1, r1, #1
  72:Src/include/ScreenControl.h ****                 visualData[dataLen - 1 - (label->xPos/2 + label->yPos*screenWidth + i*screenWidth +
 764              		.loc 4 72 40 view .LVU195
 765 0062 0BFB0822 		mla	r2, fp, r8, r2
 766 0066 8A1A     		subs	r2, r1, r2
  72:Src/include/ScreenControl.h ****                 visualData[dataLen - 1 - (label->xPos/2 + label->yPos*screenWidth + i*screenWidth +
 767              		.loc 4 72 105 view .LVU196
 768 0068 0244     		add	r2, r2, r0
 769 006a 82F81AA0 		strb	r10, [r2, #26]
  73:Src/include/ScreenControl.h ****                 j++;
 770              		.loc 4 73 17 is_stmt 1 view .LVU197
  73:Src/include/ScreenControl.h ****                 j++;
 771              		.loc 4 73 132 is_stmt 0 view .LVU198
 772 006e 93F805A0 		ldrb	r10, [r3, #5]	@ zero_extendqisi2
  73:Src/include/ScreenControl.h ****                 j++;
 773              		.loc 4 73 143 view .LVU199
 774 0072 1A68     		ldr	r2, [r3]
  73:Src/include/ScreenControl.h ****                 j++;
 775              		.loc 4 73 54 view .LVU200
 776 0074 93F807B0 		ldrb	fp, [r3, #7]	@ zero_extendqisi2
  73:Src/include/ScreenControl.h ****                 j++;
 777              		.loc 4 73 124 view .LVU201
 778 0078 07FB0AFA 		mul	r10, r7, r10
  73:Src/include/ScreenControl.h ****                 j++;
 779              		.loc 4 73 143 view .LVU202
 780 007c 02EB6A02 		add	r2, r2, r10, asr #1
  73:Src/include/ScreenControl.h ****                 j++;
 781              		.loc 4 73 70 view .LVU203
 782 0080 93F808A0 		ldrb	r10, [r3, #8]	@ zero_extendqisi2
  73:Src/include/ScreenControl.h ****                 j++;
 783              		.loc 4 73 143 view .LVU204
ARM GAS  /tmp/cc5ZvWqu.s 			page 21


 784 0084 525D     		ldrb	r2, [r2, r5]	@ zero_extendqisi2
  73:Src/include/ScreenControl.h ****                 j++;
 785              		.loc 4 73 40 view .LVU205
 786 0086 04EB5B04 		add	r4, r4, fp, lsr #1
 787 008a 0AFB0844 		mla	r4, r10, r8, r4
 788 008e 0134     		adds	r4, r4, #1
 789 0090 091B     		subs	r1, r1, r4
  73:Src/include/ScreenControl.h ****                 j++;
 790              		.loc 4 73 109 view .LVU206
 791 0092 0144     		add	r1, r1, r0
 792 0094 0235     		adds	r5, r5, #2
 793              	.LVL47:
  73:Src/include/ScreenControl.h ****                 j++;
 794              		.loc 4 73 109 view .LVU207
 795 0096 8A76     		strb	r2, [r1, #26]
  74:Src/include/ScreenControl.h ****             }
 796              		.loc 4 74 17 is_stmt 1 view .LVU208
  71:Src/include/ScreenControl.h ****                 visualData[dataLen - 1 - (label->xPos/2 + label->yPos*screenWidth + i*screenWidth +
 797              		.loc 4 71 13 discriminator 3 view .LVU209
 798              	.LVL48:
 799              	.L30:
  71:Src/include/ScreenControl.h ****                 visualData[dataLen - 1 - (label->xPos/2 + label->yPos*screenWidth + i*screenWidth +
 800              		.loc 4 71 34 discriminator 1 view .LVU210
  71:Src/include/ScreenControl.h ****                 visualData[dataLen - 1 - (label->xPos/2 + label->yPos*screenWidth + i*screenWidth +
 801              		.loc 4 71 43 is_stmt 0 discriminator 1 view .LVU211
 802 0098 5A79     		ldrb	r2, [r3, #5]	@ zero_extendqisi2
  71:Src/include/ScreenControl.h ****                 visualData[dataLen - 1 - (label->xPos/2 + label->yPos*screenWidth + i*screenWidth +
 803              		.loc 4 71 34 discriminator 1 view .LVU212
 804 009a E9B2     		uxtb	r1, r5
 805 009c B1EB520F 		cmp	r1, r2, lsr #1
 806 00a0 CCD3     		bcc	.L29
 807              	.LBE86:
  70:Src/include/ScreenControl.h ****             for(uint8_t j = 0; j < label->width/2; j++){
 808              		.loc 4 70 9 is_stmt 1 discriminator 2 view .LVU213
 809              	.LVL49:
  70:Src/include/ScreenControl.h ****             for(uint8_t j = 0; j < label->width/2; j++){
 810              		.loc 4 70 9 is_stmt 0 discriminator 2 view .LVU214
 811 00a2 0EF1010E 		add	lr, lr, #1
 812              	.LVL50:
  70:Src/include/ScreenControl.h ****             for(uint8_t j = 0; j < label->width/2; j++){
 813              		.loc 4 70 9 discriminator 2 view .LVU215
 814 00a6 C1E7     		b	.L28
 815              	.LVL51:
 816              	.L32:
  70:Src/include/ScreenControl.h ****             for(uint8_t j = 0; j < label->width/2; j++){
 817              		.loc 4 70 9 discriminator 2 view .LVU216
 818 00a8 0025     		movs	r5, #0
 819 00aa F5E7     		b	.L30
 820              	.LBE88:
 821              	.LBE90:
 822              	.LBE91:
 823              		.cfi_endproc
 824              	.LFE161:
 825              		.cantunwind
 826              		.fnend
 828              		.section	.text._Z14Spi_Write_Datat,"ax",%progbits
 829              		.align	1
ARM GAS  /tmp/cc5ZvWqu.s 			page 22


 830              		.global	_Z14Spi_Write_Datat
 831              		.syntax unified
 832              		.thumb
 833              		.thumb_func
 835              	_Z14Spi_Write_Datat:
 836              		.fnstart
 837              	.LVL52:
 838              	.LFB172:
   1:Src/main.c    **** #include <stm32g474xx.h>
   2:Src/main.c    **** 
   3:Src/main.c    **** #include "include/ScreenControl.h"
   4:Src/main.c    **** 
   5:Src/main.c    **** #include "include/FONT_A.h" //test font
   6:Src/main.c    **** 
   7:Src/main.c    **** #include "include/Font.h"
   8:Src/main.c    **** #include "include/Label.h"
   9:Src/main.c    **** #include "include/ScreenControl.h"
  10:Src/main.c    **** 
  11:Src/main.c    **** #include "include/SPI_Connection.h"
  12:Src/main.c    **** 
  13:Src/main.c    ****     // =========== OLED SPI ======================
  14:Src/main.c    ****     // PA5 -- SCK
  15:Src/main.c    ****     // PA7 -- MOSI
  16:Src/main.c    ****     // PA15 -- CS
  17:Src/main.c    ****     // PA14 -- RESET
  18:Src/main.c    **** 
  19:Src/main.c    ****     // PB12 -- SPI2_NSS --CS
  20:Src/main.c    ****     // PB13 -- SPI2_SCK --SCK
  21:Src/main.c    ****     // PB14 -- RESET OLED
  22:Src/main.c    ****     // PB15 -- SPI2_MOSI --SDO
  23:Src/main.c    **** 
  24:Src/main.c    **** #define		 CS_LOW 	GPIOB->BSRR = GPIO_BSRR_BR12;
  25:Src/main.c    **** #define 	 CS_HIGH 	GPIOB->BSRR = GPIO_BSRR_BS12;
  26:Src/main.c    **** 
  27:Src/main.c    **** static inline void write_char(uint8_t x_pos, uint8_t y_pos, const uint32_t *Char)  __attribute__((a
  28:Src/main.c    **** 
  29:Src/main.c    **** static inline void Spi_Init(void)
  30:Src/main.c    **** {
  31:Src/main.c    ****     // –≤–∫–ª—é—á–∞–µ–º —Ç–∞–∫—Ç–∏—Ä–æ–≤–∞–Ω–∏–µ PortB
  32:Src/main.c    ****     RCC->AHB2ENR  |= RCC_AHB2ENR_GPIOBEN;
  33:Src/main.c    **** 
  34:Src/main.c    ****     GPIOB->MODER  &= ~(GPIO_MODER_MODE12   | GPIO_MODER_MODE13   | GPIO_MODER_MODE14   | GPIO_MODER
  35:Src/main.c    ****     GPIOB->MODER  |=  (GPIO_MODER_MODE12_0 | GPIO_MODER_MODE13_1 | GPIO_MODER_MODE14_0 | GPIO_MODER
  36:Src/main.c    ****     GPIOB->AFR[1] &= ~( GPIO_AFRH_AFSEL13   | GPIO_AFRH_AFSEL15 ); // AF5 –¥–ª—è PB13, PB15
  37:Src/main.c    ****     GPIOB->AFR[1] |=  ( GPIO_AFRH_AFSEL13_2 | GPIO_AFRH_AFSEL13_0 | GPIO_AFRH_AFSEL15_2 | GPIO_AFRH
  38:Src/main.c    **** 
  39:Src/main.c    ****     GPIOB->BSRR |= GPIO_BSRR_BR14; // —à–ª–µ–º —Å–±—Ä–æ—Å –Ω–∞ PB14
  40:Src/main.c    **** 
  41:Src/main.c    ****     // –≤–∫–ª—é—á–∞–µ–º SPI2 –Ω–∞ —Ç–∞–∫—Ç–∏—Ä–æ–≤–∞–Ω–∏–µ
  42:Src/main.c    ****     RCC->APB1ENR1 |= RCC_APB1ENR1_SPI2EN;
  43:Src/main.c    **** 
  44:Src/main.c    ****     SPI2->CR1 |= SPI_CR1_MSTR | SPI_CR1_CPOL | SPI_CR1_CPHA | SPI_CR1_BR_0 | SPI_CR1_BR_1 | SPI_CR1
  45:Src/main.c    ****     SPI2->CR2 |= SPI_CR2_DS_3;  // –¥–ª–∏–Ω–∞ —Ñ—Ä–µ–π–º–∞ 9-–±–∏—Ç
  46:Src/main.c    ****     SPI2->CR2 &= ~(SPI_CR2_DS_0 | SPI_CR2_DS_1 | SPI_CR2_DS_2);
  47:Src/main.c    **** 
  48:Src/main.c    ****     CS_HIGH
  49:Src/main.c    **** 
ARM GAS  /tmp/cc5ZvWqu.s 			page 23


  50:Src/main.c    ****     SPI2->CR1 |= SPI_CR1_SPE; // –≤–∫–ª—é—á–∞–µ–º SPI
  51:Src/main.c    **** 
  52:Src/main.c    ****     for(uint32_t timer=0;timer<500;timer++) {
  53:Src/main.c    ****         __NOP();
  54:Src/main.c    ****     }
  55:Src/main.c    **** 
  56:Src/main.c    ****     GPIOB->BSRR |= GPIO_BSRR_BS14; // –æ—Ç–∫–ª—é—á–∞–µ–º —Å–±—Ä–æ—Å
  57:Src/main.c    **** }
  58:Src/main.c    **** 
  59:Src/main.c    **** static inline void joystickInit(){
  60:Src/main.c    **** /* –Ω–∞—Å—Ç—Ä–∞–∏–≤–∞–µ–º GPI10 */
  61:Src/main.c    ****     GPIOB->MODER &= ~GPIO_MODER_MODER10;    //Up             /* MODE10=00 */
  62:Src/main.c    ****     GPIOB->PUPDR |=  GPIO_PUPDR_PUPD10_0;                    /* PUPD10=01 */
  63:Src/main.c    **** 
  64:Src/main.c    ****     GPIOB->MODER &= ~GPIO_MODER_MODER2;     //Right
  65:Src/main.c    ****     GPIOB->PUPDR |=  GPIO_PUPDR_PUPD2_0;
  66:Src/main.c    **** 
  67:Src/main.c    ****     GPIOC->MODER &= ~GPIO_MODER_MODER4;     //Left
  68:Src/main.c    ****     GPIOC->PUPDR |=  GPIO_PUPDR_PUPD4_0;
  69:Src/main.c    **** 
  70:Src/main.c    ****     GPIOC->MODER &= ~GPIO_MODER_MODER5;     //Down
  71:Src/main.c    ****     GPIOC->PUPDR |=  GPIO_PUPDR_PUPD5_0;
  72:Src/main.c    **** 
  73:Src/main.c    ****     GPIOC->MODER &= ~GPIO_MODER_MODER13;    //Center
  74:Src/main.c    ****     GPIOC->PUPDR |=  GPIO_PUPDR_PUPD13_0;
  75:Src/main.c    **** 
  76:Src/main.c    ****     /*
  77:Src/main.c    ****         00: No pull-up, pull-down
  78:Src/main.c    ****         01: Pull-up
  79:Src/main.c    ****         10: Pull-down
  80:Src/main.c    ****         11: Reserved
  81:Src/main.c    ****     */
  82:Src/main.c    **** }
  83:Src/main.c    **** 
  84:Src/main.c    **** uint16_t Spi_Write_Data(uint16_t data)
  85:Src/main.c    **** {
 839              		.loc 1 85 1 is_stmt 1 view -0
 840              		.cfi_startproc
 841              		@ args = 0, pretend = 0, frame = 0
 842              		@ frame_needed = 0, uses_anonymous_args = 0
 843              		@ link register save eliminated.
  86:Src/main.c    ****         //–∂–¥—ë–º –ø–æ–∫–∞ –æ–ø—É—Å—Ç–æ—à–∏—Ç—Å—è Tx –±—É—Ñ–µ—Ä
  87:Src/main.c    **** 	while(!(SPI2->SR & SPI_SR_TXE));
 844              		.loc 1 87 2 view .LVU218
 845              		.loc 1 87 16 is_stmt 0 discriminator 1 view .LVU219
 846 0000 084B     		ldr	r3, .L40
 847              	.L34:
 848              		.loc 1 87 8 is_stmt 1 discriminator 1 view .LVU220
 849              		.loc 1 87 16 is_stmt 0 discriminator 1 view .LVU221
 850 0002 9A68     		ldr	r2, [r3, #8]
 851              		.loc 1 87 8 discriminator 1 view .LVU222
 852 0004 9207     		lsls	r2, r2, #30
 853 0006 FCD5     		bpl	.L34
  88:Src/main.c    **** 	//–∞–∫—Ç–∏–≤–∏—Ä—É–µ–º Chip Select
  89:Src/main.c    **** 	CS_LOW
 854              		.loc 1 89 2 is_stmt 1 view .LVU223
 855 0008 074A     		ldr	r2, .L40+4
ARM GAS  /tmp/cc5ZvWqu.s 			page 24


 856 000a 4FF08051 		mov	r1, #268435456
 857 000e 9161     		str	r1, [r2, #24]
  90:Src/main.c    ****         //–æ—Ç–ø—Ä–∞–≤–ª—è–µ–º –¥–∞–Ω–Ω—ã–µ
  91:Src/main.c    **** 	SPI2->DR = data;
 858              		.loc 1 91 2 view .LVU224
 859              		.loc 1 91 11 is_stmt 0 view .LVU225
 860 0010 D860     		str	r0, [r3, #12]
  92:Src/main.c    **** 
  93:Src/main.c    ****         //–∂–¥—ë–º –ø–æ–∫–∞ –ø—Ä–∏–¥—ë—Ç –æ—Ç–≤–µ—Ç
  94:Src/main.c    **** 	while(!(SPI2->SR & SPI_SR_RXNE));
 861              		.loc 1 94 2 is_stmt 1 view .LVU226
 862              	.L35:
 863              		.loc 1 94 8 discriminator 1 view .LVU227
 864              		.loc 1 94 16 is_stmt 0 discriminator 1 view .LVU228
 865 0012 9968     		ldr	r1, [r3, #8]
 866              		.loc 1 94 8 discriminator 1 view .LVU229
 867 0014 C907     		lsls	r1, r1, #31
 868 0016 FCD5     		bpl	.L35
  95:Src/main.c    ****         //—Å—á–∏—Ç—ã–≤–∞–µ–º –ø–æ–ª—É—á–µ–Ω–Ω—ã–µ –¥–∞–Ω–Ω—ã–µ
  96:Src/main.c    **** 	data = SPI2->DR;
 869              		.loc 1 96 2 is_stmt 1 view .LVU230
 870              		.loc 1 96 15 is_stmt 0 view .LVU231
 871 0018 D868     		ldr	r0, [r3, #12]
 872              	.LVL53:
  97:Src/main.c    **** 	//–¥–µ–∞–∫—Ç–∏–≤–∏—Ä—É–µ–º Chip Select
  98:Src/main.c    **** 	CS_HIGH
 873              		.loc 1 98 2 is_stmt 1 view .LVU232
 874 001a 4FF48053 		mov	r3, #4096
 875 001e 9361     		str	r3, [r2, #24]
  99:Src/main.c    ****         //–≤–æ–∑–≤—Ä–∞—â–∞–µ–º —Ç–æ, —á—Ç–æ –ø—Ä–æ—á–∏—Ç–∞–ª–∏
 100:Src/main.c    ****        return data;
 876              		.loc 1 100 8 view .LVU233
 101:Src/main.c    **** }
 877              		.loc 1 101 1 is_stmt 0 view .LVU234
 878 0020 80B2     		uxth	r0, r0
 879              		.loc 1 101 1 view .LVU235
 880 0022 7047     		bx	lr
 881              	.L41:
 882              		.align	2
 883              	.L40:
 884 0024 00380040 		.word	1073756160
 885 0028 00040048 		.word	1207960576
 886              		.cfi_endproc
 887              	.LFE172:
 888              		.cantunwind
 889              		.fnend
 891              		.section	.text._Z19SSD1322_SPI_Write_Dh,"ax",%progbits
 892              		.align	1
 893              		.global	_Z19SSD1322_SPI_Write_Dh
 894              		.syntax unified
 895              		.thumb
 896              		.thumb_func
 898              	_Z19SSD1322_SPI_Write_Dh:
 899              		.fnstart
 900              	.LVL54:
 901              	.LFB173:
 102:Src/main.c    **** 
ARM GAS  /tmp/cc5ZvWqu.s 			page 25


 103:Src/main.c    **** void SSD1322_SPI_Write_D(uint8_t data) {
 902              		.loc 1 103 40 is_stmt 1 view -0
 903              		.cfi_startproc
 904              		@ args = 0, pretend = 0, frame = 0
 905              		@ frame_needed = 0, uses_anonymous_args = 0
 906              		@ link register save eliminated.
 104:Src/main.c    **** 
 105:Src/main.c    ****     Spi_Write_Data(0x0100 | data);
 907              		.loc 1 105 5 view .LVU237
 908              		.loc 1 105 19 is_stmt 0 view .LVU238
 909 0000 40F48070 		orr	r0, r0, #256
 910              	.LVL55:
 911              		.loc 1 105 19 view .LVU239
 912 0004 FFF7FEBF 		b	_Z14Spi_Write_Datat
 913              	.LVL56:
 914              		.cfi_endproc
 915              	.LFE173:
 916              		.cantunwind
 917              		.fnend
 919              		.section	.text._Z19SSD1322_SPI_Write_Ch,"ax",%progbits
 920              		.align	1
 921              		.global	_Z19SSD1322_SPI_Write_Ch
 922              		.syntax unified
 923              		.thumb
 924              		.thumb_func
 926              	_Z19SSD1322_SPI_Write_Ch:
 927              		.fnstart
 928              	.LVL57:
 929              	.LFB174:
 106:Src/main.c    **** }
 107:Src/main.c    **** 
 108:Src/main.c    **** void SSD1322_SPI_Write_C(uint8_t cmd) {
 930              		.loc 1 108 39 is_stmt 1 view -0
 931              		.cfi_startproc
 932              		@ args = 0, pretend = 0, frame = 0
 933              		@ frame_needed = 0, uses_anonymous_args = 0
 934              		@ link register save eliminated.
 109:Src/main.c    **** 
 110:Src/main.c    ****     Spi_Write_Data(cmd);
 935              		.loc 1 110 5 view .LVU241
 936              		.loc 1 110 19 is_stmt 0 view .LVU242
 937 0000 FFF7FEBF 		b	_Z14Spi_Write_Datat
 938              	.LVL58:
 939              		.loc 1 110 19 view .LVU243
 940              		.cfi_endproc
 941              	.LFE174:
 942              		.cantunwind
 943              		.fnend
 945              		.section	.text._Z20SSD1322_SPI_Write_CDhh,"ax",%progbits
 946              		.align	1
 947              		.global	_Z20SSD1322_SPI_Write_CDhh
 948              		.syntax unified
 949              		.thumb
 950              		.thumb_func
 952              	_Z20SSD1322_SPI_Write_CDhh:
 953              		.fnstart
 954              	.LVL59:
ARM GAS  /tmp/cc5ZvWqu.s 			page 26


 955              	.LFB175:
 111:Src/main.c    **** }
 112:Src/main.c    **** 
 113:Src/main.c    **** void SSD1322_SPI_Write_CD(uint8_t cmd, uint8_t D0) {
 956              		.loc 1 113 52 is_stmt 1 view -0
 957              		.cfi_startproc
 958              		@ args = 0, pretend = 0, frame = 0
 959              		@ frame_needed = 0, uses_anonymous_args = 0
 114:Src/main.c    **** 
 115:Src/main.c    ****     SSD1322_SPI_Write_C(cmd);
 960              		.loc 1 115 5 view .LVU245
 961              	.LBB92:
 962              	.LBI92:
 108:Src/main.c    **** 
 963              		.loc 1 108 6 view .LVU246
 964              	.LBB93:
 110:Src/main.c    **** }
 965              		.loc 1 110 5 view .LVU247
 966              	.LBE93:
 967              	.LBE92:
 113:Src/main.c    **** 
 968              		.loc 1 113 52 is_stmt 0 view .LVU248
 969 0000 10B5     		push	{r4, lr}
 970              	.LCFI10:
 971              		.cfi_def_cfa_offset 8
 972              		.cfi_offset 4, -8
 973              		.cfi_offset 14, -4
 113:Src/main.c    **** 
 974              		.loc 1 113 52 view .LVU249
 975 0002 0C46     		mov	r4, r1
 976              	.LBB95:
 977              	.LBB94:
 110:Src/main.c    **** }
 978              		.loc 1 110 19 view .LVU250
 979 0004 FFF7FEFF 		bl	_Z14Spi_Write_Datat
 980              	.LVL60:
 110:Src/main.c    **** }
 981              		.loc 1 110 19 view .LVU251
 982              	.LBE94:
 983              	.LBE95:
 116:Src/main.c    ****     SSD1322_SPI_Write_D(D0);
 984              		.loc 1 116 5 is_stmt 1 view .LVU252
 985              		.loc 1 116 24 is_stmt 0 view .LVU253
 986 0008 2046     		mov	r0, r4
 117:Src/main.c    **** }
 987              		.loc 1 117 1 view .LVU254
 988 000a BDE81040 		pop	{r4, lr}
 989              	.LCFI11:
 990              		.cfi_restore 14
 991              		.cfi_restore 4
 992              		.cfi_def_cfa_offset 0
 993              	.LVL61:
 116:Src/main.c    ****     SSD1322_SPI_Write_D(D0);
 994              		.loc 1 116 24 view .LVU255
 995 000e FFF7FEBF 		b	_Z19SSD1322_SPI_Write_Dh
 996              	.LVL62:
 116:Src/main.c    ****     SSD1322_SPI_Write_D(D0);
ARM GAS  /tmp/cc5ZvWqu.s 			page 27


 997              		.loc 1 116 24 view .LVU256
 998              		.cfi_endproc
 999              	.LFE175:
 1000              		.cantunwind
 1001              		.fnend
 1003              		.section	.text._Z21SSD1322_SPI_Write_CDDhhh,"ax",%progbits
 1004              		.align	1
 1005              		.global	_Z21SSD1322_SPI_Write_CDDhhh
 1006              		.syntax unified
 1007              		.thumb
 1008              		.thumb_func
 1010              	_Z21SSD1322_SPI_Write_CDDhhh:
 1011              		.fnstart
 1012              	.LVL63:
 1013              	.LFB176:
 118:Src/main.c    **** 
 119:Src/main.c    **** void SSD1322_SPI_Write_CDD(uint8_t cmd, uint8_t D0, uint8_t D1) {
 1014              		.loc 1 119 65 is_stmt 1 view -0
 1015              		.cfi_startproc
 1016              		@ args = 0, pretend = 0, frame = 0
 1017              		@ frame_needed = 0, uses_anonymous_args = 0
 120:Src/main.c    **** 
 121:Src/main.c    ****     SSD1322_SPI_Write_C(cmd);
 1018              		.loc 1 121 5 view .LVU258
 1019              	.LBB96:
 1020              	.LBI96:
 108:Src/main.c    **** 
 1021              		.loc 1 108 6 view .LVU259
 1022              	.LBB97:
 110:Src/main.c    **** }
 1023              		.loc 1 110 5 view .LVU260
 1024              	.LBE97:
 1025              	.LBE96:
 119:Src/main.c    **** 
 1026              		.loc 1 119 65 is_stmt 0 view .LVU261
 1027 0000 38B5     		push	{r3, r4, r5, lr}
 1028              	.LCFI12:
 1029              		.cfi_def_cfa_offset 16
 1030              		.cfi_offset 3, -16
 1031              		.cfi_offset 4, -12
 1032              		.cfi_offset 5, -8
 1033              		.cfi_offset 14, -4
 119:Src/main.c    **** 
 1034              		.loc 1 119 65 view .LVU262
 1035 0002 0D46     		mov	r5, r1
 1036 0004 1446     		mov	r4, r2
 1037              	.LBB99:
 1038              	.LBB98:
 110:Src/main.c    **** }
 1039              		.loc 1 110 19 view .LVU263
 1040 0006 FFF7FEFF 		bl	_Z14Spi_Write_Datat
 1041              	.LVL64:
 110:Src/main.c    **** }
 1042              		.loc 1 110 19 view .LVU264
 1043              	.LBE98:
 1044              	.LBE99:
 122:Src/main.c    ****     SSD1322_SPI_Write_D(D0);
ARM GAS  /tmp/cc5ZvWqu.s 			page 28


 1045              		.loc 1 122 5 is_stmt 1 view .LVU265
 1046              		.loc 1 122 24 is_stmt 0 view .LVU266
 1047 000a 2846     		mov	r0, r5
 1048 000c FFF7FEFF 		bl	_Z19SSD1322_SPI_Write_Dh
 1049              	.LVL65:
 123:Src/main.c    ****     SSD1322_SPI_Write_D(D1);
 1050              		.loc 1 123 5 is_stmt 1 view .LVU267
 1051              		.loc 1 123 24 is_stmt 0 view .LVU268
 1052 0010 2046     		mov	r0, r4
 124:Src/main.c    **** }
 1053              		.loc 1 124 1 view .LVU269
 1054 0012 BDE83840 		pop	{r3, r4, r5, lr}
 1055              	.LCFI13:
 1056              		.cfi_restore 14
 1057              		.cfi_restore 5
 1058              		.cfi_restore 4
 1059              		.cfi_restore 3
 1060              		.cfi_def_cfa_offset 0
 1061              	.LVL66:
 123:Src/main.c    ****     SSD1322_SPI_Write_D(D1);
 1062              		.loc 1 123 24 view .LVU270
 1063 0016 FFF7FEBF 		b	_Z19SSD1322_SPI_Write_Dh
 1064              	.LVL67:
 123:Src/main.c    ****     SSD1322_SPI_Write_D(D1);
 1065              		.loc 1 123 24 view .LVU271
 1066              		.cfi_endproc
 1067              	.LFE176:
 1068              		.cantunwind
 1069              		.fnend
 1071              		.section	.text._Z22SSD1322_SPI_Write_CDDDhhhh,"ax",%progbits
 1072              		.align	1
 1073              		.global	_Z22SSD1322_SPI_Write_CDDDhhhh
 1074              		.syntax unified
 1075              		.thumb
 1076              		.thumb_func
 1078              	_Z22SSD1322_SPI_Write_CDDDhhhh:
 1079              		.fnstart
 1080              	.LVL68:
 1081              	.LFB177:
 125:Src/main.c    **** 
 126:Src/main.c    **** void SSD1322_SPI_Write_CDDD(uint8_t cmd, uint8_t D0, uint8_t D1, uint8_t D2) {
 1082              		.loc 1 126 78 is_stmt 1 view -0
 1083              		.cfi_startproc
 1084              		@ args = 0, pretend = 0, frame = 0
 1085              		@ frame_needed = 0, uses_anonymous_args = 0
 127:Src/main.c    **** 
 128:Src/main.c    ****     SSD1322_SPI_Write_C(cmd);
 1086              		.loc 1 128 5 view .LVU273
 1087              	.LBB100:
 1088              	.LBI100:
 108:Src/main.c    **** 
 1089              		.loc 1 108 6 view .LVU274
 1090              	.LBB101:
 110:Src/main.c    **** }
 1091              		.loc 1 110 5 view .LVU275
 1092              	.LBE101:
 1093              	.LBE100:
ARM GAS  /tmp/cc5ZvWqu.s 			page 29


 126:Src/main.c    **** 
 1094              		.loc 1 126 78 is_stmt 0 view .LVU276
 1095 0000 70B5     		push	{r4, r5, r6, lr}
 1096              	.LCFI14:
 1097              		.cfi_def_cfa_offset 16
 1098              		.cfi_offset 4, -16
 1099              		.cfi_offset 5, -12
 1100              		.cfi_offset 6, -8
 1101              		.cfi_offset 14, -4
 126:Src/main.c    **** 
 1102              		.loc 1 126 78 view .LVU277
 1103 0002 0E46     		mov	r6, r1
 1104 0004 1546     		mov	r5, r2
 1105 0006 1C46     		mov	r4, r3
 1106              	.LBB103:
 1107              	.LBB102:
 110:Src/main.c    **** }
 1108              		.loc 1 110 19 view .LVU278
 1109 0008 FFF7FEFF 		bl	_Z14Spi_Write_Datat
 1110              	.LVL69:
 110:Src/main.c    **** }
 1111              		.loc 1 110 19 view .LVU279
 1112              	.LBE102:
 1113              	.LBE103:
 129:Src/main.c    ****     SSD1322_SPI_Write_D(D0);
 1114              		.loc 1 129 5 is_stmt 1 view .LVU280
 1115              		.loc 1 129 24 is_stmt 0 view .LVU281
 1116 000c 3046     		mov	r0, r6
 1117 000e FFF7FEFF 		bl	_Z19SSD1322_SPI_Write_Dh
 1118              	.LVL70:
 130:Src/main.c    ****     SSD1322_SPI_Write_D(D1);
 1119              		.loc 1 130 5 is_stmt 1 view .LVU282
 1120              		.loc 1 130 24 is_stmt 0 view .LVU283
 1121 0012 2846     		mov	r0, r5
 1122 0014 FFF7FEFF 		bl	_Z19SSD1322_SPI_Write_Dh
 1123              	.LVL71:
 131:Src/main.c    ****     SSD1322_SPI_Write_D(D2);
 1124              		.loc 1 131 5 is_stmt 1 view .LVU284
 1125              		.loc 1 131 24 is_stmt 0 view .LVU285
 1126 0018 2046     		mov	r0, r4
 132:Src/main.c    **** }
 1127              		.loc 1 132 1 view .LVU286
 1128 001a BDE87040 		pop	{r4, r5, r6, lr}
 1129              	.LCFI15:
 1130              		.cfi_restore 14
 1131              		.cfi_restore 6
 1132              		.cfi_restore 5
 1133              		.cfi_restore 4
 1134              		.cfi_def_cfa_offset 0
 1135              	.LVL72:
 131:Src/main.c    ****     SSD1322_SPI_Write_D(D2);
 1136              		.loc 1 131 24 view .LVU287
 1137 001e FFF7FEBF 		b	_Z19SSD1322_SPI_Write_Dh
 1138              	.LVL73:
 131:Src/main.c    ****     SSD1322_SPI_Write_D(D2);
 1139              		.loc 1 131 24 view .LVU288
 1140              		.cfi_endproc
ARM GAS  /tmp/cc5ZvWqu.s 			page 30


 1141              	.LFE177:
 1142              		.cantunwind
 1143              		.fnend
 1145              		.section	.text._Z23SSD1322_SPI_Write_CDDDDhhhhh,"ax",%progbits
 1146              		.align	1
 1147              		.global	_Z23SSD1322_SPI_Write_CDDDDhhhhh
 1148              		.syntax unified
 1149              		.thumb
 1150              		.thumb_func
 1152              	_Z23SSD1322_SPI_Write_CDDDDhhhhh:
 1153              		.fnstart
 1154              	.LVL74:
 1155              	.LFB178:
 133:Src/main.c    **** 
 134:Src/main.c    **** void SSD1322_SPI_Write_CDDDD(uint8_t cmd, uint8_t D0, uint8_t D1, uint8_t D2, uint8_t D3) {
 1156              		.loc 1 134 91 is_stmt 1 view -0
 1157              		.cfi_startproc
 1158              		@ args = 4, pretend = 0, frame = 0
 1159              		@ frame_needed = 0, uses_anonymous_args = 0
 135:Src/main.c    **** 
 136:Src/main.c    ****     SSD1322_SPI_Write_C(cmd);
 1160              		.loc 1 136 5 view .LVU290
 1161              	.LBB104:
 1162              	.LBI104:
 108:Src/main.c    **** 
 1163              		.loc 1 108 6 view .LVU291
 1164              	.LBB105:
 110:Src/main.c    **** }
 1165              		.loc 1 110 5 view .LVU292
 1166              	.LBE105:
 1167              	.LBE104:
 134:Src/main.c    **** 
 1168              		.loc 1 134 91 is_stmt 0 view .LVU293
 1169 0000 F8B5     		push	{r3, r4, r5, r6, r7, lr}
 1170              	.LCFI16:
 1171              		.cfi_def_cfa_offset 24
 1172              		.cfi_offset 3, -24
 1173              		.cfi_offset 4, -20
 1174              		.cfi_offset 5, -16
 1175              		.cfi_offset 6, -12
 1176              		.cfi_offset 7, -8
 1177              		.cfi_offset 14, -4
 134:Src/main.c    **** 
 1178              		.loc 1 134 91 view .LVU294
 1179 0002 0E46     		mov	r6, r1
 1180 0004 1546     		mov	r5, r2
 1181 0006 1C46     		mov	r4, r3
 1182 0008 9DF81870 		ldrb	r7, [sp, #24]	@ zero_extendqisi2
 1183              	.LBB107:
 1184              	.LBB106:
 110:Src/main.c    **** }
 1185              		.loc 1 110 19 view .LVU295
 1186 000c FFF7FEFF 		bl	_Z14Spi_Write_Datat
 1187              	.LVL75:
 110:Src/main.c    **** }
 1188              		.loc 1 110 19 view .LVU296
 1189              	.LBE106:
ARM GAS  /tmp/cc5ZvWqu.s 			page 31


 1190              	.LBE107:
 137:Src/main.c    ****     SSD1322_SPI_Write_D(D0);
 1191              		.loc 1 137 5 is_stmt 1 view .LVU297
 1192              		.loc 1 137 24 is_stmt 0 view .LVU298
 1193 0010 3046     		mov	r0, r6
 1194 0012 FFF7FEFF 		bl	_Z19SSD1322_SPI_Write_Dh
 1195              	.LVL76:
 138:Src/main.c    ****     SSD1322_SPI_Write_D(D1);
 1196              		.loc 1 138 5 is_stmt 1 view .LVU299
 1197              		.loc 1 138 24 is_stmt 0 view .LVU300
 1198 0016 2846     		mov	r0, r5
 1199 0018 FFF7FEFF 		bl	_Z19SSD1322_SPI_Write_Dh
 1200              	.LVL77:
 139:Src/main.c    ****     SSD1322_SPI_Write_D(D2);
 1201              		.loc 1 139 5 is_stmt 1 view .LVU301
 1202              		.loc 1 139 24 is_stmt 0 view .LVU302
 1203 001c 2046     		mov	r0, r4
 1204 001e FFF7FEFF 		bl	_Z19SSD1322_SPI_Write_Dh
 1205              	.LVL78:
 140:Src/main.c    ****     SSD1322_SPI_Write_D(D3);
 1206              		.loc 1 140 5 is_stmt 1 view .LVU303
 1207              		.loc 1 140 24 is_stmt 0 view .LVU304
 1208 0022 3846     		mov	r0, r7
 141:Src/main.c    **** }
 1209              		.loc 1 141 1 view .LVU305
 1210 0024 BDE8F840 		pop	{r3, r4, r5, r6, r7, lr}
 1211              	.LCFI17:
 1212              		.cfi_restore 14
 1213              		.cfi_restore 7
 1214              		.cfi_restore 6
 1215              		.cfi_restore 5
 1216              		.cfi_restore 4
 1217              		.cfi_restore 3
 1218              		.cfi_def_cfa_offset 0
 1219              	.LVL79:
 140:Src/main.c    ****     SSD1322_SPI_Write_D(D3);
 1220              		.loc 1 140 24 view .LVU306
 1221 0028 FFF7FEBF 		b	_Z19SSD1322_SPI_Write_Dh
 1222              	.LVL80:
 1223              		.cfi_endproc
 1224              	.LFE178:
 1225              		.cantunwind
 1226              		.fnend
 1228              		.section	.text._Z10invertCharPm,"ax",%progbits
 1229              		.align	1
 1230              		.global	_Z10invertCharPm
 1231              		.syntax unified
 1232              		.thumb
 1233              		.thumb_func
 1235              	_Z10invertCharPm:
 1236              		.fnstart
 1237              	.LVL81:
 1238              	.LFB180:
 142:Src/main.c    **** 
 143:Src/main.c    **** 
 144:Src/main.c    **** /*
 145:Src/main.c    **** static uint8_t *u8x8_ssd1322_8to32(U8X8_UNUSED u8x8_t *u8x8, uint8_t *ptr)
ARM GAS  /tmp/cc5ZvWqu.s 			page 32


 146:Src/main.c    **** {
 147:Src/main.c    ****   uint8_t v;
 148:Src/main.c    ****   uint8_t a,b;
 149:Src/main.c    ****   uint8_t i, j;
 150:Src/main.c    ****   uint8_t *dest;
 151:Src/main.c    **** 
 152:Src/main.c    ****   for( j = 0; j < 4; j++ )
 153:Src/main.c    ****   {
 154:Src/main.c    ****     dest = u8x8_ssd1322_to32_dest_buf;
 155:Src/main.c    ****     dest += j;
 156:Src/main.c    ****     a =*ptr;
 157:Src/main.c    ****     ptr++;
 158:Src/main.c    ****     b = *ptr;
 159:Src/main.c    ****     ptr++;
 160:Src/main.c    ****     for( i = 0; i < 8; i++ )
 161:Src/main.c    ****     {
 162:Src/main.c    ****       v = 0;
 163:Src/main.c    ****       if ( a&1 ) v |= 0xf0;
 164:Src/main.c    ****       if ( b&1 ) v |= 0x0f;
 165:Src/main.c    ****       *dest = v;
 166:Src/main.c    ****       dest+=4;
 167:Src/main.c    ****       a >>= 1;
 168:Src/main.c    ****       b >>= 1;
 169:Src/main.c    ****     }
 170:Src/main.c    ****   }
 171:Src/main.c    **** 
 172:Src/main.c    ****   return u8x8_ssd1322_to32_dest_buf;
 173:Src/main.c    **** }
 174:Src/main.c    **** 
 175:Src/main.c    **** void SSD1322_SPI_DrawTile(uint8_t x_pos, uint8_t x_offset, uint8_t y_pos, uint8_t y_offset, uint8_t
 176:Src/main.c    **** {
 177:Src/main.c    ****     uint8_t x;
 178:Src/main.c    ****     uint8_t y, c;
 179:Src/main.c    ****     uint8_t *ptr;
 180:Src/main.c    **** 
 181:Src/main.c    ****     x = x_pos;
 182:Src/main.c    ****     x *= 2;		// only every 4th col can be addressed
 183:Src/main.c    ****     x += x_offset;
 184:Src/main.c    **** 
 185:Src/main.c    ****     y = y_pos;
 186:Src/main.c    ****     y *= 8;
 187:Src/main.c    **** 
 188:Src/main.c    ****     SSD1322_SPI_Write_CDD(0x75,y, y+7); // set row address, moved out of the loop (issue 302)
 189:Src/main.c    **** 
 190:Src/main.c    ****     do
 191:Src/main.c    ****     {
 192:Src/main.c    ****         c = cnt;
 193:Src/main.c    ****         ptr = Data;
 194:Src/main.c    **** 
 195:Src/main.c    ****         do
 196:Src/main.c    ****         {
 197:Src/main.c    ****             SSD1322_SPI_Write_CDD(0x15, x, x+1);	// set column address, start, end
 198:Src/main.c    ****             SSD1322_SPI_Write_C(0x5c);	            // write to ram
 199:Src/main.c    **** 
 200:Src/main.c    ****             u8x8_cad_SendData(u8x8, 32, u8x8_ssd1322_8to32(u8x8, ptr));
 201:Src/main.c    **** 
 202:Src/main.c    ****             ptr += 8;
ARM GAS  /tmp/cc5ZvWqu.s 			page 33


 203:Src/main.c    ****             x += 2;
 204:Src/main.c    ****             c--;
 205:Src/main.c    ****         } while( c > 0 );
 206:Src/main.c    **** 
 207:Src/main.c    ****         //x += 2;
 208:Src/main.c    ****         arg_int--;
 209:Src/main.c    ****     } while( arg_int > 0 );
 210:Src/main.c    **** }
 211:Src/main.c    **** */
 212:Src/main.c    **** 
 213:Src/main.c    **** union PixU8_t {
 214:Src/main.c    ****     struct {
 215:Src/main.c    ****         uint8_t pix0:4;
 216:Src/main.c    ****         uint8_t pix1:4;
 217:Src/main.c    ****         uint8_t pix2:4;
 218:Src/main.c    ****         uint8_t pix3:4;
 219:Src/main.c    ****     };
 220:Src/main.c    ****     uint8_t Data[2];
 221:Src/main.c    ****     uint16_t DataW;
 222:Src/main.c    **** };
 223:Src/main.c    **** 
 224:Src/main.c    **** 
 225:Src/main.c    **** const uint16_t OLED_Data_Length = 256*64/4;
 226:Src/main.c    **** 
 227:Src/main.c    **** PixU8_t OLED_Data[OLED_Data_Length] = {0};
 228:Src/main.c    **** 
 229:Src/main.c    **** static void write_char(const uint8_t x_pos, const uint8_t y_pos, const uint32_t *Char) {
 230:Src/main.c    ****     uint8_t char_pos = 0;
 231:Src/main.c    ****     // –í—ã–≤–æ–¥–∏–º —Å–∏–º–≤–æ–ª
 232:Src/main.c    ****     for(uint8_t i=0;i<8;i++) {// i - symbol height
 233:Src/main.c    ****         uint16_t pos = (256/4)*(7-i+y_pos)+(256/4-x_pos);
 234:Src/main.c    ****         OLED_Data[pos+1].DataW = Char[char_pos]>>16;
 235:Src/main.c    ****         OLED_Data[pos].DataW = Char[char_pos++];
 236:Src/main.c    ****     }
 237:Src/main.c    **** }
 238:Src/main.c    **** 
 239:Src/main.c    **** void invertChar(uint32_t *character){
 1239              		.loc 1 239 37 is_stmt 1 view -0
 1240              		.cfi_startproc
 1241              		@ args = 0, pretend = 0, frame = 0
 1242              		@ frame_needed = 0, uses_anonymous_args = 0
 1243              		@ link register save eliminated.
 240:Src/main.c    ****     for(int i = 0; i < 8; i++){ //invert
 1244              		.loc 1 240 5 view .LVU308
 1245              	.LBB108:
 1246              		.loc 1 240 22 discriminator 1 view .LVU309
 1247 0000 031F     		subs	r3, r0, #4
 1248              	.LBE108:
 239:Src/main.c    ****     for(int i = 0; i < 8; i++){ //invert
 1249              		.loc 1 239 37 is_stmt 0 view .LVU310
 1250 0002 1A46     		mov	r2, r3
 1251 0004 1C30     		adds	r0, r0, #28
 1252              	.LVL82:
 1253              	.L49:
 1254              	.LBB109:
 241:Src/main.c    ****         character[i] ^= 0xFFFFFFFF;
 1255              		.loc 1 241 9 is_stmt 1 view .LVU311
ARM GAS  /tmp/cc5ZvWqu.s 			page 34


 1256              		.loc 1 241 22 is_stmt 0 view .LVU312
 1257 0006 52F8041F 		ldr	r1, [r2, #4]!
 1258 000a C943     		mvns	r1, r1
 240:Src/main.c    ****     for(int i = 0; i < 8; i++){ //invert
 1259              		.loc 1 240 22 discriminator 1 view .LVU313
 1260 000c 8242     		cmp	r2, r0
 1261              		.loc 1 241 22 view .LVU314
 1262 000e 1160     		str	r1, [r2]
 240:Src/main.c    ****     for(int i = 0; i < 8; i++){ //invert
 1263              		.loc 1 240 5 is_stmt 1 discriminator 3 view .LVU315
 240:Src/main.c    ****     for(int i = 0; i < 8; i++){ //invert
 1264              		.loc 1 240 22 discriminator 1 view .LVU316
 1265 0010 F9D1     		bne	.L49
 1266 0012 074A     		ldr	r2, .L53
 1267              	.L50:
 1268              	.LVL83:
 240:Src/main.c    ****     for(int i = 0; i < 8; i++){ //invert
 1269              		.loc 1 240 22 is_stmt 0 discriminator 1 view .LVU317
 1270              	.LBE109:
 1271              	.LBB110:
 1272              	.LBB111:
 1273              	.LBB112:
 1274              	.LBB113:
 233:Src/main.c    ****         OLED_Data[pos+1].DataW = Char[char_pos]>>16;
 1275              		.loc 1 233 9 is_stmt 1 view .LVU318
 234:Src/main.c    ****         OLED_Data[pos].DataW = Char[char_pos++];
 1276              		.loc 1 234 9 view .LVU319
 234:Src/main.c    ****         OLED_Data[pos].DataW = Char[char_pos++];
 1277              		.loc 1 234 48 is_stmt 0 view .LVU320
 1278 0014 53F8041F 		ldr	r1, [r3, #4]!
 1279              	.LVL84:
 234:Src/main.c    ****         OLED_Data[pos].DataW = Char[char_pos++];
 1280              		.loc 1 234 48 view .LVU321
 1281 0018 090C     		lsrs	r1, r1, #16
 234:Src/main.c    ****         OLED_Data[pos].DataW = Char[char_pos++];
 1282              		.loc 1 234 32 view .LVU322
 1283 001a A2F8E814 		strh	r1, [r2, #1256]	@ movhi
 235:Src/main.c    ****     }
 1284              		.loc 1 235 9 is_stmt 1 view .LVU323
 1285              	.LVL85:
 235:Src/main.c    ****     }
 1286              		.loc 1 235 30 is_stmt 0 view .LVU324
 1287 001e 1968     		ldr	r1, [r3]
 1288 0020 A2F8E614 		strh	r1, [r2, #1254]	@ movhi
 1289              	.LBE113:
 232:Src/main.c    ****         uint16_t pos = (256/4)*(7-i+y_pos)+(256/4-x_pos);
 1290              		.loc 1 232 5 is_stmt 1 discriminator 3 view .LVU325
 1291              	.LVL86:
 232:Src/main.c    ****         uint16_t pos = (256/4)*(7-i+y_pos)+(256/4-x_pos);
 1292              		.loc 1 232 22 discriminator 1 view .LVU326
 1293 0024 8342     		cmp	r3, r0
 1294 0026 A2F18002 		sub	r2, r2, #128
 1295 002a F3D1     		bne	.L50
 1296              	.LBE112:
 1297              	.LBE111:
 1298              	.LBE110:
 242:Src/main.c    ****     }
ARM GAS  /tmp/cc5ZvWqu.s 			page 35


 243:Src/main.c    **** 
 244:Src/main.c    ****     write_char(13, 2, character);
 245:Src/main.c    **** }
 1299              		.loc 1 245 1 is_stmt 0 view .LVU327
 1300 002c 7047     		bx	lr
 1301              	.L54:
 1302 002e 00BF     		.align	2
 1303              	.L53:
 1304 0030 00000000 		.word	OLED_Data
 1305              		.cfi_endproc
 1306              	.LFE180:
 1307              		.cantunwind
 1308              		.fnend
 1310              		.section	.text.startup.main,"ax",%progbits
 1311              		.align	1
 1312              		.global	main
 1313              		.syntax unified
 1314              		.thumb
 1315              		.thumb_func
 1317              	main:
 1318              		.fnstart
 1319              	.LFB181:
 246:Src/main.c    **** 
 247:Src/main.c    **** int main()
 248:Src/main.c    **** {
 1320              		.loc 1 248 1 is_stmt 1 view -0
 1321              		.cfi_startproc
 1322              		@ args = 0, pretend = 0, frame = 8224
 1323              		@ frame_needed = 0, uses_anonymous_args = 0
 249:Src/main.c    **** 
 250:Src/main.c    **** // PortInit:
 251:Src/main.c    **** 
 252:Src/main.c    ****     // PB1 -- –õ–µ–≤–æ
 253:Src/main.c    ****     // PB7 -- –ü—Ä–∞–≤–æ
 254:Src/main.c    **** 
 255:Src/main.c    ****     // PB10 -- –ö–Ω–æ–ø–∫–∞ –í–≤–µ—Ä—Ö
 256:Src/main.c    **** 
 257:Src/main.c    ****     RCC->AHB2ENR |= RCC_AHB2ENR_GPIOBEN;     /* –≤–∫–ª—é—á–∞–µ–º —Ç–∞–∫—Ç–∏—Ä–æ–≤–∞–Ω–∏–µ PortB */
 1324              		.loc 1 257 5 view .LVU329
 1325              		.loc 1 257 10 is_stmt 0 view .LVU330
 1326 0000 714B     		ldr	r3, .L61
 1327 0002 DA6C     		ldr	r2, [r3, #76]
 1328              		.loc 1 257 18 view .LVU331
 1329 0004 42F00202 		orr	r2, r2, #2
 248:Src/main.c    **** 
 1330              		.loc 1 248 1 view .LVU332
 1331 0008 10B5     		push	{r4, lr}
 1332              	.LCFI18:
 1333              		.cfi_def_cfa_offset 8
 1334              		.cfi_offset 4, -8
 1335              		.cfi_offset 14, -4
 1336              		.loc 1 257 18 view .LVU333
 1337 000a DA64     		str	r2, [r3, #76]
 258:Src/main.c    ****     RCC->AHB2ENR |= RCC_AHB2ENR_GPIOCEN;
 1338              		.loc 1 258 5 is_stmt 1 view .LVU334
 1339              		.loc 1 258 10 is_stmt 0 view .LVU335
 1340 000c DA6C     		ldr	r2, [r3, #76]
ARM GAS  /tmp/cc5ZvWqu.s 			page 36


 1341              		.loc 1 258 18 view .LVU336
 1342 000e 42F00402 		orr	r2, r2, #4
 1343 0012 DA64     		str	r2, [r3, #76]
 259:Src/main.c    ****     /* –Ω–∞—Å—Ç—Ä–∞–∏–≤–∞–µ–º GPIO1 */
 260:Src/main.c    ****     // GPIOB->MODER |=  GPIO_MODER_MODER1_0;    /* MODE1=01 */
 261:Src/main.c    ****     // GPIOB->MODER &= ~GPIO_MODER_MODER1_1;    /* MODE1=01 */
 262:Src/main.c    ****     GPIOB->MODER = (GPIOB->MODER & ~GPIO_MODER_MODER1) | GPIO_MODER_MODER1_0;    /* MODE1=01 */
 1344              		.loc 1 262 5 is_stmt 1 view .LVU337
 1345              		.loc 1 262 28 is_stmt 0 view .LVU338
 1346 0014 6D4B     		ldr	r3, .L61+4
 1347 0016 1A68     		ldr	r2, [r3]
 1348              		.loc 1 262 34 view .LVU339
 1349 0018 22F00C02 		bic	r2, r2, #12
 1350              		.loc 1 262 56 view .LVU340
 1351 001c 42F00402 		orr	r2, r2, #4
 1352              		.loc 1 262 18 view .LVU341
 1353 0020 1A60     		str	r2, [r3]
 263:Src/main.c    ****     GPIOB->MODER = (GPIOB->MODER & ~GPIO_MODER_MODER7) | GPIO_MODER_MODER7_0;    /* MODE7=01 */ //s
 1354              		.loc 1 263 5 is_stmt 1 view .LVU342
 1355              		.loc 1 263 28 is_stmt 0 view .LVU343
 1356 0022 1A68     		ldr	r2, [r3]
 1357              		.loc 1 263 34 view .LVU344
 1358 0024 22F44042 		bic	r2, r2, #49152
 1359              		.loc 1 263 56 view .LVU345
 1360 0028 42F48042 		orr	r2, r2, #16384
 1361              		.loc 1 263 18 view .LVU346
 1362 002c 1A60     		str	r2, [r3]
 264:Src/main.c    **** 
 265:Src/main.c    ****     /*
 266:Src/main.c    ****         00: Input mode
 267:Src/main.c    ****         01: General purpose output mode
 268:Src/main.c    ****         10: Alternate function mode
 269:Src/main.c    ****         11: Analog mode (reset state)
 270:Src/main.c    ****     */
 271:Src/main.c    **** 
 272:Src/main.c    ****     /* –Ω–∞—Å—Ç—Ä–∞–∏–≤–∞–µ–º GPI10 */
 273:Src/main.c    ****     /*
 274:Src/main.c    ****     GPIOB->MODER &= ~GPIO_MODER_MODER10;     // MODE10=00
 275:Src/main.c    ****     GPIOB->PUPDR |=  GPIO_PUPDR_PUPD10_0;    // PUPD10=01
 276:Src/main.c    ****     */
 277:Src/main.c    ****     joystickInit();
 1363              		.loc 1 277 5 is_stmt 1 view .LVU347
 1364              	.LBB137:
 1365              	.LBI137:
  59:Src/main.c    **** /* –Ω–∞—Å—Ç—Ä–∞–∏–≤–∞–µ–º GPI10 */
 1366              		.loc 1 59 20 view .LVU348
 1367              	.LBB138:
  61:Src/main.c    ****     GPIOB->PUPDR |=  GPIO_PUPDR_PUPD10_0;                    /* PUPD10=01 */
 1368              		.loc 1 61 5 view .LVU349
  61:Src/main.c    ****     GPIOB->PUPDR |=  GPIO_PUPDR_PUPD10_0;                    /* PUPD10=01 */
 1369              		.loc 1 61 12 is_stmt 0 view .LVU350
 1370 002e 1A68     		ldr	r2, [r3]
  61:Src/main.c    ****     GPIOB->PUPDR |=  GPIO_PUPDR_PUPD10_0;                    /* PUPD10=01 */
 1371              		.loc 1 61 18 view .LVU351
 1372 0030 22F44012 		bic	r2, r2, #3145728
 1373 0034 1A60     		str	r2, [r3]
  62:Src/main.c    **** 
ARM GAS  /tmp/cc5ZvWqu.s 			page 37


 1374              		.loc 1 62 5 is_stmt 1 view .LVU352
  62:Src/main.c    **** 
 1375              		.loc 1 62 12 is_stmt 0 view .LVU353
 1376 0036 DA68     		ldr	r2, [r3, #12]
  62:Src/main.c    **** 
 1377              		.loc 1 62 18 view .LVU354
 1378 0038 42F48012 		orr	r2, r2, #1048576
 1379 003c DA60     		str	r2, [r3, #12]
  64:Src/main.c    ****     GPIOB->PUPDR |=  GPIO_PUPDR_PUPD2_0;
 1380              		.loc 1 64 5 is_stmt 1 view .LVU355
  64:Src/main.c    ****     GPIOB->PUPDR |=  GPIO_PUPDR_PUPD2_0;
 1381              		.loc 1 64 12 is_stmt 0 view .LVU356
 1382 003e 1A68     		ldr	r2, [r3]
  64:Src/main.c    ****     GPIOB->PUPDR |=  GPIO_PUPDR_PUPD2_0;
 1383              		.loc 1 64 18 view .LVU357
 1384 0040 22F03002 		bic	r2, r2, #48
 1385 0044 1A60     		str	r2, [r3]
  65:Src/main.c    **** 
 1386              		.loc 1 65 5 is_stmt 1 view .LVU358
  65:Src/main.c    **** 
 1387              		.loc 1 65 12 is_stmt 0 view .LVU359
 1388 0046 DA68     		ldr	r2, [r3, #12]
  65:Src/main.c    **** 
 1389              		.loc 1 65 18 view .LVU360
 1390 0048 42F01002 		orr	r2, r2, #16
 1391 004c DA60     		str	r2, [r3, #12]
  67:Src/main.c    ****     GPIOC->PUPDR |=  GPIO_PUPDR_PUPD4_0;
 1392              		.loc 1 67 5 is_stmt 1 view .LVU361
  67:Src/main.c    ****     GPIOC->PUPDR |=  GPIO_PUPDR_PUPD4_0;
 1393              		.loc 1 67 12 is_stmt 0 view .LVU362
 1394 004e D3F80024 		ldr	r2, [r3, #1024]
  67:Src/main.c    ****     GPIOC->PUPDR |=  GPIO_PUPDR_PUPD4_0;
 1395              		.loc 1 67 18 view .LVU363
 1396 0052 22F44072 		bic	r2, r2, #768
 1397 0056 C3F80024 		str	r2, [r3, #1024]
  68:Src/main.c    **** 
 1398              		.loc 1 68 5 is_stmt 1 view .LVU364
  68:Src/main.c    **** 
 1399              		.loc 1 68 12 is_stmt 0 view .LVU365
 1400 005a D3F80C24 		ldr	r2, [r3, #1036]
  68:Src/main.c    **** 
 1401              		.loc 1 68 18 view .LVU366
 1402 005e 42F48072 		orr	r2, r2, #256
 1403 0062 C3F80C24 		str	r2, [r3, #1036]
  70:Src/main.c    ****     GPIOC->PUPDR |=  GPIO_PUPDR_PUPD5_0;
 1404              		.loc 1 70 5 is_stmt 1 view .LVU367
  70:Src/main.c    ****     GPIOC->PUPDR |=  GPIO_PUPDR_PUPD5_0;
 1405              		.loc 1 70 12 is_stmt 0 view .LVU368
 1406 0066 D3F80024 		ldr	r2, [r3, #1024]
  70:Src/main.c    ****     GPIOC->PUPDR |=  GPIO_PUPDR_PUPD5_0;
 1407              		.loc 1 70 18 view .LVU369
 1408 006a 22F44062 		bic	r2, r2, #3072
 1409 006e C3F80024 		str	r2, [r3, #1024]
  71:Src/main.c    **** 
 1410              		.loc 1 71 5 is_stmt 1 view .LVU370
  71:Src/main.c    **** 
 1411              		.loc 1 71 12 is_stmt 0 view .LVU371
ARM GAS  /tmp/cc5ZvWqu.s 			page 38


 1412 0072 D3F80C24 		ldr	r2, [r3, #1036]
  71:Src/main.c    **** 
 1413              		.loc 1 71 18 view .LVU372
 1414 0076 42F48062 		orr	r2, r2, #1024
 1415 007a C3F80C24 		str	r2, [r3, #1036]
  73:Src/main.c    ****     GPIOC->PUPDR |=  GPIO_PUPDR_PUPD13_0;
 1416              		.loc 1 73 5 is_stmt 1 view .LVU373
  73:Src/main.c    ****     GPIOC->PUPDR |=  GPIO_PUPDR_PUPD13_0;
 1417              		.loc 1 73 12 is_stmt 0 view .LVU374
 1418 007e D3F80024 		ldr	r2, [r3, #1024]
  73:Src/main.c    ****     GPIOC->PUPDR |=  GPIO_PUPDR_PUPD13_0;
 1419              		.loc 1 73 18 view .LVU375
 1420 0082 22F04062 		bic	r2, r2, #201326592
 1421 0086 C3F80024 		str	r2, [r3, #1024]
  74:Src/main.c    **** 
 1422              		.loc 1 74 5 is_stmt 1 view .LVU376
  74:Src/main.c    **** 
 1423              		.loc 1 74 12 is_stmt 0 view .LVU377
 1424 008a D3F80C24 		ldr	r2, [r3, #1036]
 1425              	.LBE138:
 1426              	.LBE137:
 248:Src/main.c    **** 
 1427              		.loc 1 248 1 view .LVU378
 1428 008e ADF5005D 		sub	sp, sp, #8192
 1429              	.LCFI19:
 1430              		.cfi_def_cfa_offset 8200
 1431 0092 88B0     		sub	sp, sp, #32
 1432              	.LCFI20:
 1433              		.cfi_def_cfa_offset 8232
 1434              	.LBB140:
 1435              	.LBB139:
  74:Src/main.c    **** 
 1436              		.loc 1 74 18 view .LVU379
 1437 0094 42F08062 		orr	r2, r2, #67108864
 1438 0098 C3F80C24 		str	r2, [r3, #1036]
 1439              	.LBE139:
 1440              	.LBE140:
 278:Src/main.c    **** 
 279:Src/main.c    ****     /*
 280:Src/main.c    ****         00: No pull-up, pull-down
 281:Src/main.c    ****         01: Pull-up
 282:Src/main.c    ****         10: Pull-down
 283:Src/main.c    ****         11: Reserved
 284:Src/main.c    ****     */
 285:Src/main.c    **** 
 286:Src/main.c    **** #define TESTn
 287:Src/main.c    **** 
 288:Src/main.c    **** #ifndef TEST
 289:Src/main.c    **** 
 290:Src/main.c    ****     //EXPERIMANTAL \/----------------------------------------------\/
 291:Src/main.c    **** 
 292:Src/main.c    ****     SPI_Connection connection;              //Create SPI2 connection object
 1441              		.loc 1 292 5 is_stmt 1 view .LVU380
 1442              		.loc 1 292 20 is_stmt 0 view .LVU381
 1443 009c 6846     		mov	r0, sp
 1444 009e FFF7FEFF 		bl	_ZN14SPI_ConnectionC1Ev
 1445              	.LVL87:
ARM GAS  /tmp/cc5ZvWqu.s 			page 39


 293:Src/main.c    ****     ScreenControl screen(&connection);      //Create Screen control handler and bind to SPI2 connec
 1446              		.loc 1 293 5 is_stmt 1 view .LVU382
 1447              	.LBB141:
 1448              	.LBI141:
  55:Src/include/ScreenControl.h ****         connection = c;
 1449              		.loc 4 55 5 view .LVU383
 1450              	.LBB142:
 1451              	.LBB143:
  55:Src/include/ScreenControl.h ****         connection = c;
 1452              		.loc 4 55 37 is_stmt 0 view .LVU384
 1453 00a2 0423     		movs	r3, #4
 1454 00a4 4FF40052 		mov	r2, #8192
 1455 00a8 0021     		movs	r1, #0
 1456 00aa 0DF11E00 		add	r0, sp, #30
 1457 00ae 8DF80830 		strb	r3, [sp, #8]
 1458 00b2 ADF81C20 		strh	r2, [sp, #28]	@ movhi
 1459 00b6 FFF7FEFF 		bl	memset
 1460              	.LVL88:
 1461 00ba 0DF58153 		add	r3, sp, #4128
 1462 00be 8022     		movs	r2, #128
 1463 00c0 83F8FE2F 		strb	r2, [r3, #4094]
 1464 00c4 4022     		movs	r2, #64
 1465 00c6 83F8FF2F 		strb	r2, [r3, #4095]
  56:Src/include/ScreenControl.h **** 
 1466              		.loc 4 56 9 is_stmt 1 view .LVU385
  60:Src/include/ScreenControl.h ****         page_1[1] = &l2;
 1467              		.loc 4 60 19 is_stmt 0 view .LVU386
 1468 00ca 414B     		ldr	r3, .L61+8
 1469 00cc 0393     		str	r3, [sp, #12]
  61:Src/include/ScreenControl.h ****         page_1[2] = &l3;
 1470              		.loc 4 61 19 view .LVU387
 1471 00ce 414B     		ldr	r3, .L61+12
 1472 00d0 0493     		str	r3, [sp, #16]
  62:Src/include/ScreenControl.h ****         page_1[3] = &l4;
 1473              		.loc 4 62 19 view .LVU388
 1474 00d2 414B     		ldr	r3, .L61+16
 1475 00d4 0593     		str	r3, [sp, #20]
 1476              	.LBE143:
 1477              	.LBE142:
 1478              	.LBE141:
 294:Src/main.c    **** 
 295:Src/main.c    ****     connection.SSD1322_write_CD(0xfd, 0x12);                 // unlock
 1479              		.loc 1 295 32 view .LVU389
 1480 00d6 1221     		movs	r1, #18
 1481              	.LBB148:
 1482              	.LBB146:
 1483              	.LBB144:
  63:Src/include/ScreenControl.h **** 
 1484              		.loc 4 63 19 view .LVU390
 1485 00d8 404B     		ldr	r3, .L61+20
 1486 00da 0693     		str	r3, [sp, #24]
 1487              	.LBE144:
 1488              	.LBE146:
 1489              	.LBE148:
 1490              		.loc 1 295 32 view .LVU391
 1491 00dc FD20     		movs	r0, #253
 1492              	.LBB149:
ARM GAS  /tmp/cc5ZvWqu.s 			page 40


 1493              	.LBB147:
 1494              	.LBB145:
  56:Src/include/ScreenControl.h **** 
 1495              		.loc 4 56 20 view .LVU392
 1496 00de CDF804D0 		str	sp, [sp, #4]
  60:Src/include/ScreenControl.h ****         page_1[1] = &l2;
 1497              		.loc 4 60 9 is_stmt 1 view .LVU393
  61:Src/include/ScreenControl.h ****         page_1[2] = &l3;
 1498              		.loc 4 61 9 view .LVU394
  62:Src/include/ScreenControl.h ****         page_1[3] = &l4;
 1499              		.loc 4 62 9 view .LVU395
  63:Src/include/ScreenControl.h **** 
 1500              		.loc 4 63 9 view .LVU396
 1501              	.LVL89:
  63:Src/include/ScreenControl.h **** 
 1502              		.loc 4 63 9 is_stmt 0 view .LVU397
 1503              	.LBE145:
 1504              	.LBE147:
 1505              	.LBE149:
 1506              		.loc 1 295 5 is_stmt 1 view .LVU398
 1507              		.loc 1 295 32 is_stmt 0 view .LVU399
 1508 00e2 FFF7FEFF 		bl	_ZN14SPI_Connection16SSD1322_write_CDEhh.isra.0
 1509              	.LVL90:
 296:Src/main.c    ****     connection.SSD1322_write_C(0xae);                        // display off
 1510              		.loc 1 296 5 is_stmt 1 view .LVU400
 1511              	.LBB150:
 1512              	.LBI150:
  68:Src/include/SPI_Connection.h ****         write_data(cmd);
 1513              		.loc 3 68 10 view .LVU401
 1514              	.LBB151:
  69:Src/include/SPI_Connection.h ****     }
 1515              		.loc 3 69 9 view .LVU402
  69:Src/include/SPI_Connection.h ****     }
 1516              		.loc 3 69 19 is_stmt 0 view .LVU403
 1517 00e6 AE20     		movs	r0, #174
 1518 00e8 FFF7FEFF 		bl	_ZN14SPI_Connection10write_dataEt.isra.0
 1519              	.LVL91:
  69:Src/include/SPI_Connection.h ****     }
 1520              		.loc 3 69 19 view .LVU404
 1521              	.LBE151:
 1522              	.LBE150:
 297:Src/main.c    ****     connection.SSD1322_write_CD(0xb3, 0x91);                 // set display clock divide ratio/osci
 1523              		.loc 1 297 5 is_stmt 1 view .LVU405
 1524              		.loc 1 297 32 is_stmt 0 view .LVU406
 1525 00ec 9121     		movs	r1, #145
 1526 00ee B320     		movs	r0, #179
 1527 00f0 FFF7FEFF 		bl	_ZN14SPI_Connection16SSD1322_write_CDEhh.isra.0
 1528              	.LVL92:
 298:Src/main.c    ****     connection.SSD1322_write_CD(0xca, 0x3f);                 // multiplex ratio 1/64 Duty (0x0F~0x3
 1529              		.loc 1 298 5 is_stmt 1 view .LVU407
 1530              		.loc 1 298 32 is_stmt 0 view .LVU408
 1531 00f4 3F21     		movs	r1, #63
 1532 00f6 CA20     		movs	r0, #202
 1533 00f8 FFF7FEFF 		bl	_ZN14SPI_Connection16SSD1322_write_CDEhh.isra.0
 1534              	.LVL93:
 299:Src/main.c    ****     connection.SSD1322_write_CD(0xa2, 0x00);                 // display offset, shift mapping ram c
 1535              		.loc 1 299 5 is_stmt 1 view .LVU409
ARM GAS  /tmp/cc5ZvWqu.s 			page 41


 1536              		.loc 1 299 32 is_stmt 0 view .LVU410
 1537 00fc 0021     		movs	r1, #0
 1538 00fe A220     		movs	r0, #162
 1539 0100 FFF7FEFF 		bl	_ZN14SPI_Connection16SSD1322_write_CDEhh.isra.0
 1540              	.LVL94:
 300:Src/main.c    ****     connection.SSD1322_write_CD(0xa1, 0x00);                 // display start line
 1541              		.loc 1 300 5 is_stmt 1 view .LVU411
 1542              		.loc 1 300 32 is_stmt 0 view .LVU412
 1543 0104 0021     		movs	r1, #0
 1544 0106 A120     		movs	r0, #161
 1545 0108 FFF7FEFF 		bl	_ZN14SPI_Connection16SSD1322_write_CDEhh.isra.0
 1546              	.LVL95:
 301:Src/main.c    ****     // SSD1322_SPI_Write_CDD(0xa0, 0x14, 0x11);           // Set Re-Map / Dual COM Line Mode
 302:Src/main.c    ****     //SSD1322_SPI_Write_CDD(0xa0, 0x06, 0x11);          // Set Re-Map / Dual COM Line Mode
 303:Src/main.c    ****     connection.SSD1322_write_C2D(0xa0, 0x02, 0x11);          // Set Re-Map / Dual COM Line Mode
 1547              		.loc 1 303 5 is_stmt 1 view .LVU413
 1548              		.loc 1 303 33 is_stmt 0 view .LVU414
 1549 010c 1122     		movs	r2, #17
 1550 010e 0221     		movs	r1, #2
 1551 0110 A020     		movs	r0, #160
 1552 0112 FFF7FEFF 		bl	_ZN14SPI_Connection17SSD1322_write_C2DEhhh.isra.0
 1553              	.LVL96:
 304:Src/main.c    ****     connection.SSD1322_write_CD(0xab, 0x01);                 // Enable Internal VDD Regulator
 1554              		.loc 1 304 5 is_stmt 1 view .LVU415
 1555              		.loc 1 304 32 is_stmt 0 view .LVU416
 1556 0116 0121     		movs	r1, #1
 1557 0118 AB20     		movs	r0, #171
 1558 011a FFF7FEFF 		bl	_ZN14SPI_Connection16SSD1322_write_CDEhh.isra.0
 1559              	.LVL97:
 305:Src/main.c    ****     connection.SSD1322_write_C2D(0xb4, 0xa0, 0x05|0xfd);    // Display Enhancement A
 1560              		.loc 1 305 5 is_stmt 1 view .LVU417
 1561              		.loc 1 305 33 is_stmt 0 view .LVU418
 1562 011e FD22     		movs	r2, #253
 1563 0120 A021     		movs	r1, #160
 1564 0122 B420     		movs	r0, #180
 1565 0124 FFF7FEFF 		bl	_ZN14SPI_Connection17SSD1322_write_C2DEhhh.isra.0
 1566              	.LVL98:
 306:Src/main.c    ****     connection.SSD1322_write_CD(0xc1, 0xAf);                 // contrast
 1567              		.loc 1 306 5 is_stmt 1 view .LVU419
 1568              		.loc 1 306 32 is_stmt 0 view .LVU420
 1569 0128 AF21     		movs	r1, #175
 1570 012a C120     		movs	r0, #193
 1571 012c FFF7FEFF 		bl	_ZN14SPI_Connection16SSD1322_write_CDEhh.isra.0
 1572              	.LVL99:
 307:Src/main.c    ****     connection.SSD1322_write_CD(0xc7, 0x0f);                 // Set Scale Factor of Segment Output 
 1573              		.loc 1 307 5 is_stmt 1 view .LVU421
 1574              		.loc 1 307 32 is_stmt 0 view .LVU422
 1575 0130 0F21     		movs	r1, #15
 1576 0132 C720     		movs	r0, #199
 1577 0134 FFF7FEFF 		bl	_ZN14SPI_Connection16SSD1322_write_CDEhh.isra.0
 1578              	.LVL100:
 308:Src/main.c    ****     connection.SSD1322_write_C(0xb9);                        // linear grayscale
 1579              		.loc 1 308 5 is_stmt 1 view .LVU423
 1580              	.LBB152:
 1581              	.LBI152:
  68:Src/include/SPI_Connection.h ****         write_data(cmd);
 1582              		.loc 3 68 10 view .LVU424
ARM GAS  /tmp/cc5ZvWqu.s 			page 42


 1583              	.LBB153:
  69:Src/include/SPI_Connection.h ****     }
 1584              		.loc 3 69 9 view .LVU425
  69:Src/include/SPI_Connection.h ****     }
 1585              		.loc 3 69 19 is_stmt 0 view .LVU426
 1586 0138 B920     		movs	r0, #185
 1587 013a FFF7FEFF 		bl	_ZN14SPI_Connection10write_dataEt.isra.0
 1588              	.LVL101:
  69:Src/include/SPI_Connection.h ****     }
 1589              		.loc 3 69 19 view .LVU427
 1590              	.LBE153:
 1591              	.LBE152:
 309:Src/main.c    ****     connection.SSD1322_write_CD(0xb1, 0xe2);                 // Phase 1 (Reset) & Phase 2 (Pre-Char
 1592              		.loc 1 309 5 is_stmt 1 view .LVU428
 1593              		.loc 1 309 32 is_stmt 0 view .LVU429
 1594 013e E221     		movs	r1, #226
 1595 0140 B120     		movs	r0, #177
 1596 0142 FFF7FEFF 		bl	_ZN14SPI_Connection16SSD1322_write_CDEhh.isra.0
 1597              	.LVL102:
 310:Src/main.c    ****     connection.SSD1322_write_C2D(0xd1, 0x82|0x20, 0x20);   // Display Enhancement B
 1598              		.loc 1 310 5 is_stmt 1 view .LVU430
 1599              		.loc 1 310 33 is_stmt 0 view .LVU431
 1600 0146 2022     		movs	r2, #32
 1601 0148 A221     		movs	r1, #162
 1602 014a D120     		movs	r0, #209
 1603 014c FFF7FEFF 		bl	_ZN14SPI_Connection17SSD1322_write_C2DEhhh.isra.0
 1604              	.LVL103:
 311:Src/main.c    ****     connection.SSD1322_write_CD(0xbb, 0x1f);                 // precharge  voltage
 1605              		.loc 1 311 5 is_stmt 1 view .LVU432
 1606              		.loc 1 311 32 is_stmt 0 view .LVU433
 1607 0150 1F21     		movs	r1, #31
 1608 0152 BB20     		movs	r0, #187
 1609 0154 FFF7FEFF 		bl	_ZN14SPI_Connection16SSD1322_write_CDEhh.isra.0
 1610              	.LVL104:
 312:Src/main.c    ****     connection.SSD1322_write_CD(0xb6, 0x08);                 // precharge  period
 1611              		.loc 1 312 5 is_stmt 1 view .LVU434
 1612              		.loc 1 312 32 is_stmt 0 view .LVU435
 1613 0158 0821     		movs	r1, #8
 1614 015a B620     		movs	r0, #182
 1615 015c FFF7FEFF 		bl	_ZN14SPI_Connection16SSD1322_write_CDEhh.isra.0
 1616              	.LVL105:
 313:Src/main.c    ****     connection.SSD1322_write_CD(0xbe, 0x07);                 // vcomh
 1617              		.loc 1 313 5 is_stmt 1 view .LVU436
 1618              		.loc 1 313 32 is_stmt 0 view .LVU437
 1619 0160 0721     		movs	r1, #7
 1620 0162 BE20     		movs	r0, #190
 1621 0164 FFF7FEFF 		bl	_ZN14SPI_Connection16SSD1322_write_CDEhh.isra.0
 1622              	.LVL106:
 314:Src/main.c    ****     connection.SSD1322_write_C(0xa6);                        // normal display
 1623              		.loc 1 314 5 is_stmt 1 view .LVU438
 1624              	.LBB154:
 1625              	.LBI154:
  68:Src/include/SPI_Connection.h ****         write_data(cmd);
 1626              		.loc 3 68 10 view .LVU439
 1627              	.LBB155:
  69:Src/include/SPI_Connection.h ****     }
 1628              		.loc 3 69 9 view .LVU440
ARM GAS  /tmp/cc5ZvWqu.s 			page 43


  69:Src/include/SPI_Connection.h ****     }
 1629              		.loc 3 69 19 is_stmt 0 view .LVU441
 1630 0168 A620     		movs	r0, #166
 1631 016a FFF7FEFF 		bl	_ZN14SPI_Connection10write_dataEt.isra.0
 1632              	.LVL107:
  69:Src/include/SPI_Connection.h ****     }
 1633              		.loc 3 69 19 view .LVU442
 1634              	.LBE155:
 1635              	.LBE154:
 315:Src/main.c    ****     connection.SSD1322_write_C(0xa9);                        // exit partial display
 1636              		.loc 1 315 5 is_stmt 1 view .LVU443
 1637              	.LBB156:
 1638              	.LBI156:
  68:Src/include/SPI_Connection.h ****         write_data(cmd);
 1639              		.loc 3 68 10 view .LVU444
 1640              	.LBB157:
  69:Src/include/SPI_Connection.h ****     }
 1641              		.loc 3 69 9 view .LVU445
  69:Src/include/SPI_Connection.h ****     }
 1642              		.loc 3 69 19 is_stmt 0 view .LVU446
 1643 016e A920     		movs	r0, #169
 1644 0170 FFF7FEFF 		bl	_ZN14SPI_Connection10write_dataEt.isra.0
 1645              	.LVL108:
  69:Src/include/SPI_Connection.h ****     }
 1646              		.loc 3 69 19 view .LVU447
 1647              	.LBE157:
 1648              	.LBE156:
 316:Src/main.c    **** 
 317:Src/main.c    ****     connection.SSD1322_write_C(0xAF);                        // –í–∫–ª—é—á–∞–µ–º —ç–∫—Ä–∞–Ω
 1649              		.loc 1 317 5 is_stmt 1 view .LVU448
 1650              	.LBB158:
 1651              	.LBI158:
  68:Src/include/SPI_Connection.h ****         write_data(cmd);
 1652              		.loc 3 68 10 view .LVU449
 1653              	.LBB159:
  69:Src/include/SPI_Connection.h ****     }
 1654              		.loc 3 69 9 view .LVU450
  69:Src/include/SPI_Connection.h ****     }
 1655              		.loc 3 69 19 is_stmt 0 view .LVU451
 1656 0174 AF20     		movs	r0, #175
 1657 0176 FFF7FEFF 		bl	_ZN14SPI_Connection10write_dataEt.isra.0
 1658              	.LVL109:
  69:Src/include/SPI_Connection.h ****     }
 1659              		.loc 3 69 19 view .LVU452
 1660              	.LBE159:
 1661              	.LBE158:
 318:Src/main.c    **** 
 319:Src/main.c    ****     for(uint32_t i = 0; i<1000; i++) {
 1662              		.loc 1 319 5 is_stmt 1 view .LVU453
 1663              	.LBB161:
 1664              		.loc 1 319 26 discriminator 1 view .LVU454
 1665              	.LBE161:
 1666              	.LBB162:
 1667              	.LBB160:
  69:Src/include/SPI_Connection.h ****     }
 1668              		.loc 3 69 19 is_stmt 0 view .LVU455
 1669 017a 4FF47A73 		mov	r3, #1000
ARM GAS  /tmp/cc5ZvWqu.s 			page 44


 1670              	.LVL110:
 1671              	.L56:
  69:Src/include/SPI_Connection.h ****     }
 1672              		.loc 3 69 19 view .LVU456
 1673              	.LBE160:
 1674              	.LBE162:
 1675              	.LBB163:
 320:Src/main.c    ****         __NOP();
 1676              		.loc 1 320 9 is_stmt 1 view .LVU457
 1677              		.syntax unified
 1678              	@ 320 "Src/main.c" 1
 1679 017e 00BF     		nop
 1680              	@ 0 "" 2
 319:Src/main.c    ****         __NOP();
 1681              		.loc 1 319 5 discriminator 3 view .LVU458
 1682              	.LVL111:
 319:Src/main.c    ****         __NOP();
 1683              		.loc 1 319 26 discriminator 1 view .LVU459
 1684              		.thumb
 1685              		.syntax unified
 1686 0180 013B     		subs	r3, r3, #1
 1687              	.LVL112:
 319:Src/main.c    ****         __NOP();
 1688              		.loc 1 319 26 is_stmt 0 discriminator 1 view .LVU460
 1689 0182 FCD1     		bne	.L56
 1690              	.LVL113:
 1691              	.L57:
 319:Src/main.c    ****         __NOP();
 1692              		.loc 1 319 26 discriminator 1 view .LVU461
 1693              	.LBE163:
 321:Src/main.c    ****     }
 322:Src/main.c    **** 
 323:Src/main.c    ****     Work1:
 1694              		.loc 1 323 5 is_stmt 1 view .LVU462
 324:Src/main.c    ****         screen.draw();
 1695              		.loc 1 324 9 view .LVU463
 1696              	.LBB164:
 1697              	.LBI164:
  84:Src/include/ScreenControl.h **** 
  85:Src/include/ScreenControl.h ****     void draw(){
 1698              		.loc 4 85 10 view .LVU464
 1699              	.LBB165:
  86:Src/include/ScreenControl.h ****         assembleFrame();
 1700              		.loc 4 86 9 view .LVU465
 1701              		.loc 4 86 22 is_stmt 0 view .LVU466
 1702 0184 01A8     		add	r0, sp, #4
 1703              	.LVL114:
 1704              		.loc 4 86 22 view .LVU467
 1705 0186 FFF7FEFF 		bl	_ZN13ScreenControl13assembleFrameEv
 1706              	.LVL115:
  87:Src/include/ScreenControl.h **** 
  88:Src/include/ScreenControl.h ****         connection->SSD1322_write_C2D(0x15, 28, 91);    // set column address, start, end
 1707              		.loc 4 88 9 is_stmt 1 view .LVU468
 1708              		.loc 4 88 38 is_stmt 0 view .LVU469
 1709 018a 5B22     		movs	r2, #91
 1710 018c 1C21     		movs	r1, #28
 1711 018e 1520     		movs	r0, #21
ARM GAS  /tmp/cc5ZvWqu.s 			page 45


 1712 0190 FFF7FEFF 		bl	_ZN14SPI_Connection17SSD1322_write_C2DEhhh.isra.0
 1713              	.LVL116:
  89:Src/include/ScreenControl.h ****         connection->SSD1322_write_C2D(0x75, 0, 63);     // set row address, moved out of the loop (
 1714              		.loc 4 89 9 is_stmt 1 view .LVU470
 1715              		.loc 4 89 38 is_stmt 0 view .LVU471
 1716 0194 3F22     		movs	r2, #63
 1717 0196 0021     		movs	r1, #0
 1718 0198 7520     		movs	r0, #117
 1719 019a FFF7FEFF 		bl	_ZN14SPI_Connection17SSD1322_write_C2DEhhh.isra.0
 1720              	.LVL117:
  90:Src/include/ScreenControl.h ****         connection->SSD1322_write_C(0x5C);              // –ó–∞–ø–∏—Å—å –≤ RAM
 1721              		.loc 4 90 9 is_stmt 1 view .LVU472
 1722              	.LBB166:
 1723              	.LBI166:
  68:Src/include/SPI_Connection.h ****         write_data(cmd);
 1724              		.loc 3 68 10 view .LVU473
 1725              	.LBB167:
  69:Src/include/SPI_Connection.h ****     }
 1726              		.loc 3 69 9 view .LVU474
  69:Src/include/SPI_Connection.h ****     }
 1727              		.loc 3 69 19 is_stmt 0 view .LVU475
 1728 019e 5C20     		movs	r0, #92
 1729 01a0 FFF7FEFF 		bl	_ZN14SPI_Connection10write_dataEt.isra.0
 1730              	.LVL118:
  69:Src/include/SPI_Connection.h ****     }
 1731              		.loc 3 69 19 view .LVU476
 1732              	.LBE167:
 1733              	.LBE166:
  91:Src/include/ScreenControl.h **** 
  92:Src/include/ScreenControl.h ****         for(uint16_t i = 0; i < dataLen; i++){
 1734              		.loc 4 92 9 is_stmt 1 view .LVU477
 1735              	.LBB168:
 1736              		.loc 4 92 9 is_stmt 0 view .LVU478
 1737 01a4 0024     		movs	r4, #0
 1738              	.LVL119:
 1739              	.L58:
 1740              		.loc 4 92 31 is_stmt 1 discriminator 1 view .LVU479
 1741 01a6 BDF81C20 		ldrh	r2, [sp, #28]
 1742 01aa A3B2     		uxth	r3, r4
 1743 01ac 9A42     		cmp	r2, r3
 1744 01ae E9D9     		bls	.L57
  93:Src/include/ScreenControl.h ****             connection->SSD1322_write_D(visualData[i]);
 1745              		.loc 4 93 13 view .LVU480
 1746              	.LVL120:
 1747              	.LBB169:
 1748              	.LBI169:
  64:Src/include/SPI_Connection.h ****         write_data(0x0100 | data);          //append data to 0x01
 1749              		.loc 3 64 10 view .LVU481
 1750              	.LBB170:
  65:Src/include/SPI_Connection.h ****     }
 1751              		.loc 3 65 9 view .LVU482
 1752              	.LBE170:
 1753              	.LBE169:
 1754              		.loc 4 93 40 is_stmt 0 view .LVU483
 1755 01b0 08AB     		add	r3, sp, #32
 1756 01b2 13FA84F3 		uxtah	r3, r3, r4
 1757 01b6 0134     		adds	r4, r4, #1
ARM GAS  /tmp/cc5ZvWqu.s 			page 46


 1758              	.LVL121:
 1759              	.LBB172:
 1760              	.LBB171:
  65:Src/include/SPI_Connection.h ****     }
 1761              		.loc 3 65 27 view .LVU484
 1762 01b8 13F8020C 		ldrb	r0, [r3, #-2]	@ zero_extendqisi2
  65:Src/include/SPI_Connection.h ****     }
 1763              		.loc 3 65 19 view .LVU485
 1764 01bc 40F48070 		orr	r0, r0, #256
 1765 01c0 FFF7FEFF 		bl	_ZN14SPI_Connection10write_dataEt.isra.0
 1766              	.LVL122:
  65:Src/include/SPI_Connection.h ****     }
 1767              		.loc 3 65 19 view .LVU486
 1768              	.LBE171:
 1769              	.LBE172:
  92:Src/include/ScreenControl.h ****             connection->SSD1322_write_D(visualData[i]);
 1770              		.loc 4 92 9 is_stmt 1 discriminator 3 view .LVU487
  92:Src/include/ScreenControl.h ****             connection->SSD1322_write_D(visualData[i]);
 1771              		.loc 4 92 9 is_stmt 0 discriminator 3 view .LVU488
 1772 01c4 EFE7     		b	.L58
 1773              	.L62:
 1774 01c6 00BF     		.align	2
 1775              	.L61:
 1776 01c8 00100240 		.word	1073876992
 1777 01cc 00040048 		.word	1207960576
 1778 01d0 00000000 		.word	l1
 1779 01d4 00000000 		.word	l2
 1780 01d8 00000000 		.word	l3
 1781 01dc 00000000 		.word	l4
 1782              	.LBE168:
 1783              	.LBE165:
 1784              	.LBE164:
 1785              		.cfi_endproc
 1786              	.LFE181:
 1787              		.cantunwind
 1788              		.fnend
 1790              		.section	.text.startup._GLOBAL__sub_I_t,"ax",%progbits
 1791              		.align	1
 1792              		.syntax unified
 1793              		.thumb
 1794              		.thumb_func
 1796              	_GLOBAL__sub_I_t:
 1797              		.fnstart
 1798              	.LFB183:
 325:Src/main.c    **** 
 326:Src/main.c    ****     goto Work1;
 327:Src/main.c    **** 
 328:Src/main.c    ****     //EXPERIMENTAL /\----------------------------------------------/\
 329:Src/main.c    **** 
 330:Src/main.c    **** #endif
 331:Src/main.c    **** 
 332:Src/main.c    **** #ifdef TEST
 333:Src/main.c    **** 
 334:Src/main.c    ****         Spi_Init();
 335:Src/main.c    **** 
 336:Src/main.c    ****     SSD1322_SPI_Write_CD(0xfd, 0x12);                 // unlock
 337:Src/main.c    ****     SSD1322_SPI_Write_C(0xae);                        // display off
ARM GAS  /tmp/cc5ZvWqu.s 			page 47


 338:Src/main.c    ****     SSD1322_SPI_Write_CD(0xb3, 0x91);                 // set display clock divide ratio/oscillator 
 339:Src/main.c    ****     SSD1322_SPI_Write_CD(0xca, 0x3f);                 // multiplex ratio 1/64 Duty (0x0F~0x3F)
 340:Src/main.c    ****     SSD1322_SPI_Write_CD(0xa2, 0x00);                 // display offset, shift mapping ram counter
 341:Src/main.c    ****     SSD1322_SPI_Write_CD(0xa1, 0x00);                 // display start line
 342:Src/main.c    ****     // SSD1322_SPI_Write_CDD(0xa0, 0x14, 0x11);           // Set Re-Map / Dual COM Line Mode
 343:Src/main.c    ****     //SSD1322_SPI_Write_CDD(0xa0, 0x06, 0x11);          // Set Re-Map / Dual COM Line Mode
 344:Src/main.c    ****     SSD1322_SPI_Write_CDD(0xa0, 0x02, 0x11);          // Set Re-Map / Dual COM Line Mode
 345:Src/main.c    ****     SSD1322_SPI_Write_CD(0xab, 0x01);                 // Enable Internal VDD Regulator
 346:Src/main.c    ****     SSD1322_SPI_Write_CDD(0xb4, 0xa0, 0x05|0xfd);    // Display Enhancement A
 347:Src/main.c    ****     SSD1322_SPI_Write_CD(0xc1, 0xAf);                 // contrast
 348:Src/main.c    ****     SSD1322_SPI_Write_CD(0xc7, 0x0f);                 // Set Scale Factor of Segment Output Current
 349:Src/main.c    ****     SSD1322_SPI_Write_C(0xb9);                        // linear grayscale
 350:Src/main.c    ****     SSD1322_SPI_Write_CD(0xb1, 0xe2);                 // Phase 1 (Reset) & Phase 2 (Pre-Charge) Per
 351:Src/main.c    ****     SSD1322_SPI_Write_CDD(0xd1, 0x82|0x20, 0x20);   // Display Enhancement B
 352:Src/main.c    ****     SSD1322_SPI_Write_CD(0xbb, 0x1f);                 // precharge  voltage
 353:Src/main.c    ****     SSD1322_SPI_Write_CD(0xb6, 0x08);                 // precharge  period
 354:Src/main.c    ****     SSD1322_SPI_Write_CD(0xbe, 0x07);                 // vcomh
 355:Src/main.c    ****     SSD1322_SPI_Write_C(0xa6);                        // normal display
 356:Src/main.c    ****     SSD1322_SPI_Write_C(0xa9);                        // exit partial display
 357:Src/main.c    **** 
 358:Src/main.c    ****     SSD1322_SPI_Write_C(0xAF);                        // –í–∫–ª—é—á–∞–µ–º —ç–∫—Ä–∞–Ω
 359:Src/main.c    **** 
 360:Src/main.c    ****     for(uint32_t i = 0; i<1000; i++) {
 361:Src/main.c    ****         __NOP();
 362:Src/main.c    ****     }
 363:Src/main.c    **** 
 364:Src/main.c    ****     SSD1322_SPI_Write_CDD(0x15, 28, 91);// set column address, start, end
 365:Src/main.c    ****     SSD1322_SPI_Write_CDD(0x75, 0, 63); // set row address, moved out of the loop (issue 302)
 366:Src/main.c    ****     SSD1322_SPI_Write_C(0x5C); // –ó–∞–ø–∏—Å—å –≤ RAM
 367:Src/main.c    **** 
 368:Src/main.c    **** 
 369:Src/main.c    ****     for(uint16_t pos=0;pos<OLED_Data_Length;pos++) { //?
 370:Src/main.c    ****         SSD1322_SPI_Write_D(OLED_Data[pos].Data[1]); // –ü–∏—à–µ–º –¥–≤–∞ –ø–∏–∫—Å–µ–ª—è
 371:Src/main.c    ****         SSD1322_SPI_Write_D(OLED_Data[pos].Data[0]); // –ü–∏—à–µ–º –¥–≤–∞ –ø–∏–∫—Å–µ–ª—è
 372:Src/main.c    ****     }
 373:Src/main.c    **** 
 374:Src/main.c    ****     // SSD1322_SPI_Write_C(0xAF);                        // –í–∫–ª—é—á–∞–µ–º —ç–∫—Ä–∞–Ω
 375:Src/main.c    **** 
 376:Src/main.c    ****     /*
 377:Src/main.c    ****     for(uint16_t pos=0;pos<sizeof(OLED_Data_t);pos++) {
 378:Src/main.c    ****         OLED_Data[pos].pix
 379:Src/main.c    ****     }
 380:Src/main.c    ****     */
 381:Src/main.c    ****     // –¢–æ—á–∫–∏ –ø–æ —É–≥–ª–∞–º
 382:Src/main.c    ****     /*
 383:Src/main.c    ****     OLED_Data[0].pix0 = 0x0F;
 384:Src/main.c    ****     OLED_Data[0].pix1 = 0x09;
 385:Src/main.c    ****     OLED_Data[0].pix2 = 0x05;
 386:Src/main.c    ****     OLED_Data[0].pix3 = 0x01;
 387:Src/main.c    ****     OLED_Data[256/4-1].pix3 = 0x0F;
 388:Src/main.c    ****     OLED_Data[256/4].pix0 = 0x09;
 389:Src/main.c    ****     OLED_Data[2*256/4].pix0 = 0x05;
 390:Src/main.c    ****     OLED_Data[3*256/4].pix0 = 0x01;
 391:Src/main.c    ****     //OLED_Data[(256/4)*63].pix0 = 0x0F;
 392:Src/main.c    ****     //OLED_Data[(256/4)*64-1].pix3 = 0x0F;
 393:Src/main.c    ****     */
 394:Src/main.c    **** 
ARM GAS  /tmp/cc5ZvWqu.s 			page 48


 395:Src/main.c    **** 
 396:Src/main.c    ****     for(uint8_t x=0;x<256/4;x++) { //top border
 397:Src/main.c    ****         uint16_t pos_x = (256/4)*10;
 398:Src/main.c    ****         /*
 399:Src/main.c    ****         OLED_Data[pos_x + x].pix0 = 0x0F;
 400:Src/main.c    ****         OLED_Data[pos_x + x].pix1 = 0x0F;
 401:Src/main.c    ****         OLED_Data[pos_x + x].pix2 = 0x0F;
 402:Src/main.c    ****         OLED_Data[pos_x + x].pix3 = 0x0F;
 403:Src/main.c    ****         */
 404:Src/main.c    ****     }
 405:Src/main.c    **** 
 406:Src/main.c    ****     for(uint8_t x=0;x<256/4;x++) { //bottom border
 407:Src/main.c    ****         uint16_t pos_x = (256/4)*0;
 408:Src/main.c    ****         /*
 409:Src/main.c    ****         OLED_Data[pos_x + x].pix0 = 0x0F;
 410:Src/main.c    ****         OLED_Data[pos_x + x].pix1 = 0x0F;
 411:Src/main.c    ****         OLED_Data[pos_x + x].pix2 = 0x0F;
 412:Src/main.c    ****         OLED_Data[pos_x + x].pix3 = 0x0F;
 413:Src/main.c    ****         */
 414:Src/main.c    ****     }
 415:Src/main.c    **** 
 416:Src/main.c    **** 
 417:Src/main.c    ****     for(uint8_t x=0;x<10;x++) { //table separators
 418:Src/main.c    ****         uint16_t pos = (256/4)*x;
 419:Src/main.c    ****         /*
 420:Src/main.c    ****         OLED_Data[pos].pix0 = 0x0F;
 421:Src/main.c    ****         OLED_Data[pos+12].pix0 = 0x0F;
 422:Src/main.c    ****         OLED_Data[pos+25].pix0 = 0x0F;
 423:Src/main.c    ****         OLED_Data[pos+38].pix0 = 0x0F;
 424:Src/main.c    ****         OLED_Data[pos+51].pix3 = 0x0F;
 425:Src/main.c    ****         OLED_Data[pos+63].pix3 = 0x0F;
 426:Src/main.c    ****         */
 427:Src/main.c    ****     }
 428:Src/main.c    **** 
 429:Src/main.c    ****     const uint32_t Char_R[] = {
 430:Src/main.c    ****         0x00000000,
 431:Src/main.c    ****         0xFFFF1000,
 432:Src/main.c    ****         0xF000F000,
 433:Src/main.c    ****         0xF000F000,
 434:Src/main.c    ****         0xFFFF1000,
 435:Src/main.c    ****         0xF1F00000,
 436:Src/main.c    ****         0xF00F0000,
 437:Src/main.c    ****         0xF000F000
 438:Src/main.c    ****     };
 439:Src/main.c    **** 
 440:Src/main.c    ****     const uint32_t Char_E[] = {
 441:Src/main.c    ****         0x00000000,
 442:Src/main.c    ****         0xFFFFF000,
 443:Src/main.c    ****         0xF0000000,
 444:Src/main.c    ****         0xF0000000,
 445:Src/main.c    ****         0xFFFFF000,
 446:Src/main.c    ****         0xF0000000,
 447:Src/main.c    ****         0xF0000000,
 448:Src/main.c    ****         0xFFFFF000
 449:Src/main.c    ****     };
 450:Src/main.c    **** 
 451:Src/main.c    ****     uint32_t Char_G[] = {
ARM GAS  /tmp/cc5ZvWqu.s 			page 49


 452:Src/main.c    ****         0x00000000,
 453:Src/main.c    ****         0x0FFF0000,
 454:Src/main.c    ****         0xF000F000,
 455:Src/main.c    ****         0xF0000000,
 456:Src/main.c    ****         0xF0000000,
 457:Src/main.c    ****         0xF00FF000,
 458:Src/main.c    ****         0xF000F000,
 459:Src/main.c    ****         0x0FFF0000
 460:Src/main.c    ****     };
 461:Src/main.c    **** 
 462:Src/main.c    ****     const uint32_t Char_CLN[] = {
 463:Src/main.c    ****         0x00000000,
 464:Src/main.c    ****         0x00000000,
 465:Src/main.c    ****         0x00FF0000,
 466:Src/main.c    ****         0x00FF0000,
 467:Src/main.c    ****         0x00000000,
 468:Src/main.c    ****         0x00FF0000,
 469:Src/main.c    ****         0x00FF0000,
 470:Src/main.c    ****         0x00000000
 471:Src/main.c    ****     };
 472:Src/main.c    **** 
 473:Src/main.c    ****     uint32_t Char_U[] = {
 474:Src/main.c    ****         0x00000000,
 475:Src/main.c    ****         0xF000F000,
 476:Src/main.c    ****         0xF000F000,
 477:Src/main.c    ****         0xF000F000,
 478:Src/main.c    ****         0xF000F000,
 479:Src/main.c    ****         0xF000F000,
 480:Src/main.c    ****         0xF000F000,
 481:Src/main.c    ****         0x0FFF0000
 482:Src/main.c    ****     };
 483:Src/main.c    **** 
 484:Src/main.c    ****     uint32_t Char_I[] = {
 485:Src/main.c    ****         0x00000000,
 486:Src/main.c    ****         0x0FFF0000,
 487:Src/main.c    ****         0x00F00000,
 488:Src/main.c    ****         0x00F00000,
 489:Src/main.c    ****         0x00F00000,
 490:Src/main.c    ****         0x00F00000,
 491:Src/main.c    ****         0x00F00000,
 492:Src/main.c    ****         0x0FFF0000
 493:Src/main.c    ****     };
 494:Src/main.c    **** 
 495:Src/main.c    ****     uint32_t Char_P[] = {
 496:Src/main.c    ****         0x00000000,
 497:Src/main.c    ****         0xFFFF0000,
 498:Src/main.c    ****         0xF000F000,
 499:Src/main.c    ****         0xF000F000,
 500:Src/main.c    ****         0xFFFF0000,
 501:Src/main.c    ****         0xF0000000,
 502:Src/main.c    ****         0xF0000000,
 503:Src/main.c    ****         0xF0000000
 504:Src/main.c    ****     };
 505:Src/main.c    **** 
 506:Src/main.c    ****     for(int i = 0; i < 8; i++){ //invert
 507:Src/main.c    ****         Char_P[i] ^= 0x00000000;
 508:Src/main.c    ****     }
ARM GAS  /tmp/cc5ZvWqu.s 			page 50


 509:Src/main.c    **** 
 510:Src/main.c    ****     write_char(3,2, Char_R);
 511:Src/main.c    ****     write_char(5,2, Char_E);
 512:Src/main.c    ****     write_char(7,2, Char_G);
 513:Src/main.c    ****     write_char(9,2, Char_CLN);
 514:Src/main.c    ****     write_char(11,2, Char_I);
 515:Src/main.c    ****     write_char(13, 2, Char_P);
 516:Src/main.c    **** 
 517:Src/main.c    ****     static uint32_t Top = 50000;
 518:Src/main.c    **** 
 519:Src/main.c    **** Work:
 520:Src/main.c    **** 
 521:Src/main.c    ****     //PCB LED control --------------------------
 522:Src/main.c    ****     /* –ø–µ—Ä–µ–∫–ª—é—á–∞–µ–º –≤—ã—Ö–æ–¥ PORTA8 –≤ –µ–¥–∏–Ω–∏—Ü—É */
 523:Src/main.c    ****     // GPIOB->BSRR |= GPIO_BSRR_BS1;
 524:Src/main.c    ****     GPIOB->ODR |= GPIO_ODR_OD1; //LED3 ORANGE
 525:Src/main.c    ****     GPIOB->ODR |= GPIO_ODR_OD7; //LED4 GREEN
 526:Src/main.c    **** 
 527:Src/main.c    ****     for(uint32_t i = 0; i<Top; i++) {
 528:Src/main.c    ****         __NOP();
 529:Src/main.c    ****     }
 530:Src/main.c    **** 
 531:Src/main.c    ****     /* –ø–µ—Ä–µ–∫–ª—é—á–∞–µ–º –≤—ã—Ö–æ–¥ PORTA8 –≤ –Ω–æ–ª—å */
 532:Src/main.c    ****     //GPIOB->BSRR |= GPIO_BSRR_BR1;
 533:Src/main.c    ****     GPIOB->ODR &= ~GPIO_ODR_OD1; //ORANGE
 534:Src/main.c    ****     GPIOB->ODR &= ~GPIO_ODR_OD7; //GREEN
 535:Src/main.c    **** 
 536:Src/main.c    ****     for(uint32_t i = 0; i<Top; i++) {
 537:Src/main.c    ****         __NOP();
 538:Src/main.c    ****     }
 539:Src/main.c    **** 
 540:Src/main.c    ****     if (~GPIOB->IDR & GPIO_IDR_ID10) {
 541:Src/main.c    ****         invertChar(Char_P);
 542:Src/main.c    ****     }
 543:Src/main.c    ****     else if (~GPIOB->IDR & GPIO_IDR_ID2) {
 544:Src/main.c    ****         invertChar(Char_I);
 545:Src/main.c    ****     }
 546:Src/main.c    ****     else if (~GPIOC->IDR & GPIO_IDR_ID5) {
 547:Src/main.c    ****         invertChar(Char_U);
 548:Src/main.c    ****     }
 549:Src/main.c    ****     else if (~GPIOC->IDR & GPIO_IDR_ID4) {
 550:Src/main.c    ****         invertChar(Char_G);
 551:Src/main.c    ****     }
 552:Src/main.c    **** 
 553:Src/main.c    ****     //PCB LED end ----------------------------
 554:Src/main.c    **** 
 555:Src/main.c    ****     //static uint16_t tmp = 0;
 556:Src/main.c    ****     //tmp++;
 557:Src/main.c    ****     //Spi_Write_Data(tmp);
 558:Src/main.c    ****     //SSD1322_SPI_Write_D(0xFF); // –ü–æ–ª–Ω–∞—è –∑–∞—Å–≤–µ—Ç–∫–∞ –¥–∏—Å–ø–ª–µ—è
 559:Src/main.c    **** 
 560:Src/main.c    ****     //OLED ------------------------------------------------------
 561:Src/main.c    ****     SSD1322_SPI_Write_CDD(0x15, 28, 91);// set column address, start, end
 562:Src/main.c    ****     SSD1322_SPI_Write_CDD(0x75, 0, 63); // set row address, moved out of the loop (issue 302)
 563:Src/main.c    ****     SSD1322_SPI_Write_C(0x5C); // –ó–∞–ø–∏—Å—å –≤ RAM
 564:Src/main.c    **** 
 565:Src/main.c    ****     for(uint16_t pos=0;pos<OLED_Data_Length;pos++) {
ARM GAS  /tmp/cc5ZvWqu.s 			page 51


 566:Src/main.c    ****         SSD1322_SPI_Write_D(OLED_Data[pos].Data[1]); // –ü–∏—à–µ–º –¥–≤–∞ –ø–∏–∫—Å–µ–ª—è
 567:Src/main.c    ****         SSD1322_SPI_Write_D(OLED_Data[pos].Data[0]); // –ü–∏—à–µ–º –¥–≤–∞ –ø–∏–∫—Å–µ–ª—è
 568:Src/main.c    ****     }
 569:Src/main.c    **** 
 570:Src/main.c    ****     goto Work; //replace with while?
 571:Src/main.c    **** #endif
 572:Src/main.c    **** 
 573:Src/main.c    **** }
 1799              		.loc 1 573 1 is_stmt 1 view -0
 1800              		.cfi_startproc
 1801              		@ args = 0, pretend = 0, frame = 0
 1802              		@ frame_needed = 0, uses_anonymous_args = 0
 1803              	.LBB175:
 1804              	.LBI175:
 1805              		.loc 1 573 1 view .LVU490
 1806              	.LBE175:
 1807 0000 2DE9F04F 		push	{r4, r5, r6, r7, r8, r9, r10, fp, lr}
 1808              	.LCFI21:
 1809              		.cfi_def_cfa_offset 36
 1810              		.cfi_offset 4, -36
 1811              		.cfi_offset 5, -32
 1812              		.cfi_offset 6, -28
 1813              		.cfi_offset 7, -24
 1814              		.cfi_offset 8, -20
 1815              		.cfi_offset 9, -16
 1816              		.cfi_offset 10, -12
 1817              		.cfi_offset 11, -8
 1818              		.cfi_offset 14, -4
 1819              	.LBB179:
 1820              	.LBB176:
  35:Src/include/ScreenControl.h ****         //data corruption as l2-l4 are bound to the same data plane
 1821              		.loc 4 35 42 is_stmt 0 view .LVU491
 1822 0004 4FF00008 		mov	r8, #0
 1823              	.LBE176:
 1824              	.LBE179:
 1825              		.loc 1 573 1 view .LVU492
 1826 0008 85B0     		sub	sp, sp, #20
 1827              	.LCFI22:
 1828              		.cfi_def_cfa_offset 56
 1829              	.LBB180:
 1830              	.LBB177:
  35:Src/include/ScreenControl.h ****         //data corruption as l2-l4 are bound to the same data plane
 1831              		.loc 4 35 42 view .LVU493
 1832 000a CDE90188 		strd	r8, r8, [sp, #4]
 1833 000e 274E     		ldr	r6, .L64
 1834 0010 274F     		ldr	r7, .L64+4
  35:Src/include/ScreenControl.h ****         //data corruption as l2-l4 are bound to the same data plane
 1835              		.loc 4 35 15 discriminator 1 view .LVU494
 1836 0012 284D     		ldr	r5, .L64+8
 1837 0014 284C     		ldr	r4, .L64+12
  35:Src/include/ScreenControl.h ****         //data corruption as l2-l4 are bound to the same data plane
 1838              		.loc 4 35 42 view .LVU495
 1839 0016 2949     		ldr	r1, .L64+16
  37:Src/include/ScreenControl.h ****         Label l3(testData2, t, 32, 8, 64, 0);
 1840              		.loc 4 37 44 view .LVU496
 1841 0018 DFF8A490 		ldr	r9, .L64+20
 1842 001c DFF8A4B0 		ldr	fp, .L64+24
ARM GAS  /tmp/cc5ZvWqu.s 			page 52


  35:Src/include/ScreenControl.h ****         //data corruption as l2-l4 are bound to the same data plane
 1843              		.loc 4 35 42 view .LVU497
 1844 0020 4FF0080A 		mov	r10, #8
 1845 0024 CDF800A0 		str	r10, [sp]
 1846 0028 3278     		ldrb	r2, [r6]	@ zero_extendqisi2
 1847 002a 2023     		movs	r3, #32
 1848 002c 3846     		mov	r0, r7
 1849 002e FFF7FEFF 		bl	_ZN5LabelC1EPhhhhhh
 1850              	.LVL123:
  35:Src/include/ScreenControl.h ****         //data corruption as l2-l4 are bound to the same data plane
 1851              		.loc 4 35 15 discriminator 1 view .LVU498
 1852 0032 2A46     		mov	r2, r5
 1853 0034 2146     		mov	r1, r4
 1854 0036 3846     		mov	r0, r7
  37:Src/include/ScreenControl.h ****         Label l3(testData2, t, 32, 8, 64, 0);
 1855              		.loc 4 37 44 view .LVU499
 1856 0038 2027     		movs	r7, #32
  35:Src/include/ScreenControl.h ****         //data corruption as l2-l4 are bound to the same data plane
 1857              		.loc 4 35 15 discriminator 1 view .LVU500
 1858 003a FFF7FEFF 		bl	__aeabi_atexit
 1859              	.LVL124:
  37:Src/include/ScreenControl.h ****         Label l3(testData2, t, 32, 8, 64, 0);
 1860              		.loc 4 37 44 view .LVU501
 1861 003e CDE90187 		strd	r8, r7, [sp, #4]
 1862 0042 CDF800A0 		str	r10, [sp]
 1863 0046 3278     		ldrb	r2, [r6]	@ zero_extendqisi2
 1864 0048 1023     		movs	r3, #16
 1865 004a 4946     		mov	r1, r9
 1866 004c 5846     		mov	r0, fp
 1867 004e FFF7FEFF 		bl	_ZN5LabelC1EPhhhhhh
 1868              	.LVL125:
  37:Src/include/ScreenControl.h ****         Label l3(testData2, t, 32, 8, 64, 0);
 1869              		.loc 4 37 15 discriminator 1 view .LVU502
 1870 0052 2A46     		mov	r2, r5
 1871 0054 2146     		mov	r1, r4
 1872 0056 5846     		mov	r0, fp
 1873 0058 FFF7FEFF 		bl	__aeabi_atexit
 1874              	.LVL126:
  38:Src/include/ScreenControl.h ****         Label l4(testData2, t, 32, 4, 64, 32);
 1875              		.loc 4 38 44 view .LVU503
 1876 005c CDF80880 		str	r8, [sp, #8]
 1877 0060 4FF04008 		mov	r8, #64
 1878 0064 CDE900A8 		strd	r10, r8, [sp]
 1879 0068 DFF85CB0 		ldr	fp, .L64+28
 1880 006c 3278     		ldrb	r2, [r6]	@ zero_extendqisi2
  39:Src/include/ScreenControl.h **** 
 1881              		.loc 4 39 45 view .LVU504
 1882 006e DFF85CA0 		ldr	r10, .L64+32
  38:Src/include/ScreenControl.h ****         Label l4(testData2, t, 32, 4, 64, 32);
 1883              		.loc 4 38 44 view .LVU505
 1884 0072 3B46     		mov	r3, r7
 1885 0074 4946     		mov	r1, r9
 1886 0076 5846     		mov	r0, fp
 1887 0078 FFF7FEFF 		bl	_ZN5LabelC1EPhhhhhh
 1888              	.LVL127:
  38:Src/include/ScreenControl.h ****         Label l4(testData2, t, 32, 4, 64, 32);
 1889              		.loc 4 38 15 discriminator 1 view .LVU506
ARM GAS  /tmp/cc5ZvWqu.s 			page 53


 1890 007c 2A46     		mov	r2, r5
 1891 007e 2146     		mov	r1, r4
 1892 0080 5846     		mov	r0, fp
 1893 0082 FFF7FEFF 		bl	__aeabi_atexit
 1894              	.LVL128:
  39:Src/include/ScreenControl.h **** 
 1895              		.loc 4 39 45 view .LVU507
 1896 0086 CDE90187 		strd	r8, r7, [sp, #4]
 1897 008a 0423     		movs	r3, #4
 1898 008c 0093     		str	r3, [sp]
 1899 008e 3278     		ldrb	r2, [r6]	@ zero_extendqisi2
 1900 0090 4946     		mov	r1, r9
 1901 0092 3B46     		mov	r3, r7
 1902 0094 5046     		mov	r0, r10
 1903 0096 FFF7FEFF 		bl	_ZN5LabelC1EPhhhhhh
 1904              	.LVL129:
  39:Src/include/ScreenControl.h **** 
 1905              		.loc 4 39 15 discriminator 1 view .LVU508
 1906 009a 2A46     		mov	r2, r5
 1907 009c 2146     		mov	r1, r4
 1908 009e 5046     		mov	r0, r10
 1909              	.LBE177:
 1910              	.LBE180:
 1911              		.loc 1 573 1 view .LVU509
 1912 00a0 05B0     		add	sp, sp, #20
 1913              	.LCFI23:
 1914              		.cfi_def_cfa_offset 36
 1915              		@ sp needed
 1916 00a2 BDE8F04F 		pop	{r4, r5, r6, r7, r8, r9, r10, fp, lr}
 1917              	.LCFI24:
 1918              		.cfi_restore 14
 1919              		.cfi_restore 11
 1920              		.cfi_restore 10
 1921              		.cfi_restore 9
 1922              		.cfi_restore 8
 1923              		.cfi_restore 7
 1924              		.cfi_restore 6
 1925              		.cfi_restore 5
 1926              		.cfi_restore 4
 1927              		.cfi_def_cfa_offset 0
 1928              	.LBB181:
 1929              	.LBB178:
  39:Src/include/ScreenControl.h **** 
 1930              		.loc 4 39 15 discriminator 1 view .LVU510
 1931 00a6 FFF7FEBF 		b	__aeabi_atexit
 1932              	.LVL130:
 1933              	.L65:
 1934 00aa 00BF     		.align	2
 1935              	.L64:
 1936 00ac 00000000 		.word	t
 1937 00b0 00000000 		.word	l1
 1938 00b4 00000000 		.word	__dso_handle
 1939 00b8 00000000 		.word	_ZN5LabelD1Ev
 1940 00bc 00000000 		.word	testData
 1941 00c0 00000000 		.word	testData2
 1942 00c4 00000000 		.word	l2
 1943 00c8 00000000 		.word	l3
ARM GAS  /tmp/cc5ZvWqu.s 			page 54


 1944 00cc 00000000 		.word	l4
 1945              	.LBE178:
 1946              	.LBE181:
 1947              		.cfi_endproc
 1948              	.LFE183:
 1949              		.cantunwind
 1950              		.fnend
 1952              		.section	.init_array,"aw",%init_array
 1953              		.align	2
 1954 0000 00000000 		.word	_GLOBAL__sub_I_t(target1)
 1955              		.global	OLED_Data
 1956              		.section	.bss.OLED_Data,"aw",%nobits
 1957              		.align	1
 1960              	OLED_Data:
 1961 0000 00000000 		.space	8192
 1961      00000000 
 1961      00000000 
 1961      00000000 
 1961      00000000 
 1962              		.global	l4
 1963              		.section	.bss.l4,"aw",%nobits
 1964              		.align	2
 1967              	l4:
 1968 0000 00000000 		.space	12
 1968      00000000 
 1968      00000000 
 1969              		.global	l3
 1970              		.section	.bss.l3,"aw",%nobits
 1971              		.align	2
 1974              	l3:
 1975 0000 00000000 		.space	12
 1975      00000000 
 1975      00000000 
 1976              		.global	l2
 1977              		.section	.bss.l2,"aw",%nobits
 1978              		.align	2
 1981              	l2:
 1982 0000 00000000 		.space	12
 1982      00000000 
 1982      00000000 
 1983              		.global	l1
 1984              		.section	.bss.l1,"aw",%nobits
 1985              		.align	2
 1988              	l1:
 1989 0000 00000000 		.space	12
 1989      00000000 
 1989      00000000 
 1990              		.global	testData2
 1991              		.section	.data.testData2,"aw"
 1994              	testData2:
 1995 0000 FFFFFFFF 		.ascii	"\377\377\377\377\377\377\377\377\377\377\377\377\377"
 1995      FFFFFFFF 
 1995      FFFFFFFF 
 1995      FF
 1996 000d FFFFFFFF 		.ascii	"\377\377\377\377\377\377\377\377\377\377\377\377\377"
 1996      FFFFFFFF 
 1996      FFFFFFFF 
ARM GAS  /tmp/cc5ZvWqu.s 			page 55


 1996      FF
 1997 001a FFFFFFFF 		.ascii	"\377\377\377\377\377\377\377\377\377\377\377\377\377"
 1997      FFFFFFFF 
 1997      FFFFFFFF 
 1997      FF
 1998 0027 FFFFFFFF 		.ascii	"\377\377\377\377\377\377\377\377\377\377\377\377\377"
 1998      FFFFFFFF 
 1998      FFFFFFFF 
 1998      FF
 1999 0034 FFFFFFFF 		.ascii	"\377\377\377\377\377\377\377\377\377\377\377\377\377"
 1999      FFFFFFFF 
 1999      FFFFFFFF 
 1999      FF
 2000 0041 FFFFFFFF 		.ascii	"\377\377\377\377\377\377\377\377\377\377\377\377\377"
 2000      FFFFFFFF 
 2000      FFFFFFFF 
 2000      FF
 2001 004e FFFFFFFF 		.ascii	"\377\377\377\377\377\377\377\377\377\377\377\377\377"
 2001      FFFFFFFF 
 2001      FFFFFFFF 
 2001      FF
 2002 005b FFFFFFFF 		.ascii	"\377\377\377\377\377\377\377\377\377\377\377\377\377"
 2002      FFFFFFFF 
 2002      FFFFFFFF 
 2002      FF
 2003 0068 FFFFFFFF 		.ascii	"\377\377\377\377\377\377\377\377\377\377\377\377\377"
 2003      FFFFFFFF 
 2003      FFFFFFFF 
 2003      FF
 2004 0075 FFFFFFFF 		.ascii	"\377\377\377\377\377\377\377\377\377\377\377"
 2004      FFFFFFFF 
 2004      FFFFFF
 2005              		.global	testData
 2006              		.section	.bss.testData,"aw",%nobits
 2009              	testData:
 2010 0000 00000000 		.space	128
 2010      00000000 
 2010      00000000 
 2010      00000000 
 2010      00000000 
 2011              		.global	t
 2012              		.section	.data.t,"aw"
 2015              	t:
 2016 0000 80       		.byte	-128
 2017              		.section	.rodata._ZN2tfL6char_0E,"a"
 2020              	_ZN2tfL6char_0E:
 2021 0000 04F40040 		.ascii	"\004\364\000@\000@\360\017\360\360\360\360O\000@\004"
 2021      0040F00F 
 2021      F0F0F0F0 
 2021      4F004004 
 2022 0010 F400     		.ascii	"\364\000"
 2023              		.text
 2024              	.Letext0:
 2025              		.file 5 "/usr/arm-none-eabi/include/machine/_default_types.h"
 2026              		.file 6 "/usr/arm-none-eabi/include/sys/_stdint.h"
 2027              		.file 7 "./Src/Drivers/CMSIS/Device/ST/STM32G4xx/Include/stm32g474xx.h"
 2028              		.file 8 "Src/include/FONT_A.h"
ARM GAS  /tmp/cc5ZvWqu.s 			page 56


ARM GAS  /tmp/cc5ZvWqu.s 			page 57


DEFINED SYMBOLS
                            *ABS*:00000000 main.c
     /tmp/cc5ZvWqu.s:21     .text._ZN5LabelD2Ev:00000000 $t
     /tmp/cc5ZvWqu.s:27     .text._ZN5LabelD2Ev:00000000 _ZN5LabelD2Ev
    .ARM.exidx.text._ZN5LabelD2Ev:00000000 $d
     /tmp/cc5ZvWqu.s:27     .text._ZN5LabelD2Ev:00000000 _ZN5LabelD1Ev
     /tmp/cc5ZvWqu.s:47     .text._ZN14SPI_Connection10write_dataEt.isra.0:00000000 $t
     /tmp/cc5ZvWqu.s:52     .text._ZN14SPI_Connection10write_dataEt.isra.0:00000000 _ZN14SPI_Connection10write_dataEt.isra.0
     /tmp/cc5ZvWqu.s:100    .text._ZN14SPI_Connection10write_dataEt.isra.0:00000024 $d
.ARM.exidx.text._ZN14SPI_Connection10write_dataEt.isra.0:00000000 $d
     /tmp/cc5ZvWqu.s:108    .text._ZN14SPI_Connection16SSD1322_write_CDEhh.isra.0:00000000 $t
     /tmp/cc5ZvWqu.s:113    .text._ZN14SPI_Connection16SSD1322_write_CDEhh.isra.0:00000000 _ZN14SPI_Connection16SSD1322_write_CDEhh.isra.0
.ARM.exidx.text._ZN14SPI_Connection16SSD1322_write_CDEhh.isra.0:00000000 $d
     /tmp/cc5ZvWqu.s:177    .text._ZN14SPI_Connection17SSD1322_write_C2DEhhh.isra.0:00000000 $t
     /tmp/cc5ZvWqu.s:182    .text._ZN14SPI_Connection17SSD1322_write_C2DEhhh.isra.0:00000000 _ZN14SPI_Connection17SSD1322_write_C2DEhhh.isra.0
.ARM.exidx.text._ZN14SPI_Connection17SSD1322_write_C2DEhhh.isra.0:00000000 $d
     /tmp/cc5ZvWqu.s:264    .text._ZN5Label8setGlyphEPKhhhhh:00000000 $t
     /tmp/cc5ZvWqu.s:270    .text._ZN5Label8setGlyphEPKhhhhh:00000000 _ZN5Label8setGlyphEPKhhhhh
.ARM.exidx.text._ZN5Label8setGlyphEPKhhhhh:00000000 $d
     /tmp/cc5ZvWqu.s:356    .text._ZN5LabelC2EPhhhhhh:00000000 $t
     /tmp/cc5ZvWqu.s:362    .text._ZN5LabelC2EPhhhhhh:00000000 _ZN5LabelC2EPhhhhhh
     /tmp/cc5ZvWqu.s:493    .text._ZN5LabelC2EPhhhhhh:0000007c $d
     /tmp/cc5ZvWqu.s:2020   .rodata._ZN2tfL6char_0E:00000000 _ZN2tfL6char_0E
.ARM.exidx.text._ZN5LabelC2EPhhhhhh:00000000 $d
     /tmp/cc5ZvWqu.s:362    .text._ZN5LabelC2EPhhhhhh:00000000 _ZN5LabelC1EPhhhhhh
     /tmp/cc5ZvWqu.s:502    .text._ZN14SPI_ConnectionC2Ev:00000000 $t
     /tmp/cc5ZvWqu.s:508    .text._ZN14SPI_ConnectionC2Ev:00000000 _ZN14SPI_ConnectionC2Ev
     /tmp/cc5ZvWqu.s:631    .text._ZN14SPI_ConnectionC2Ev:00000084 $d
.ARM.exidx.text._ZN14SPI_ConnectionC2Ev:00000000 $d
     /tmp/cc5ZvWqu.s:508    .text._ZN14SPI_ConnectionC2Ev:00000000 _ZN14SPI_ConnectionC1Ev
     /tmp/cc5ZvWqu.s:642    .text._ZN13ScreenControl13assembleFrameEv:00000000 $t
     /tmp/cc5ZvWqu.s:648    .text._ZN13ScreenControl13assembleFrameEv:00000000 _ZN13ScreenControl13assembleFrameEv
.ARM.exidx.text._ZN13ScreenControl13assembleFrameEv:00000000 $d
     /tmp/cc5ZvWqu.s:829    .text._Z14Spi_Write_Datat:00000000 $t
     /tmp/cc5ZvWqu.s:835    .text._Z14Spi_Write_Datat:00000000 _Z14Spi_Write_Datat
     /tmp/cc5ZvWqu.s:884    .text._Z14Spi_Write_Datat:00000024 $d
.ARM.exidx.text._Z14Spi_Write_Datat:00000000 $d
     /tmp/cc5ZvWqu.s:892    .text._Z19SSD1322_SPI_Write_Dh:00000000 $t
     /tmp/cc5ZvWqu.s:898    .text._Z19SSD1322_SPI_Write_Dh:00000000 _Z19SSD1322_SPI_Write_Dh
.ARM.exidx.text._Z19SSD1322_SPI_Write_Dh:00000000 $d
     /tmp/cc5ZvWqu.s:920    .text._Z19SSD1322_SPI_Write_Ch:00000000 $t
     /tmp/cc5ZvWqu.s:926    .text._Z19SSD1322_SPI_Write_Ch:00000000 _Z19SSD1322_SPI_Write_Ch
.ARM.exidx.text._Z19SSD1322_SPI_Write_Ch:00000000 $d
     /tmp/cc5ZvWqu.s:946    .text._Z20SSD1322_SPI_Write_CDhh:00000000 $t
     /tmp/cc5ZvWqu.s:952    .text._Z20SSD1322_SPI_Write_CDhh:00000000 _Z20SSD1322_SPI_Write_CDhh
.ARM.exidx.text._Z20SSD1322_SPI_Write_CDhh:00000000 $d
     /tmp/cc5ZvWqu.s:1004   .text._Z21SSD1322_SPI_Write_CDDhhh:00000000 $t
     /tmp/cc5ZvWqu.s:1010   .text._Z21SSD1322_SPI_Write_CDDhhh:00000000 _Z21SSD1322_SPI_Write_CDDhhh
.ARM.exidx.text._Z21SSD1322_SPI_Write_CDDhhh:00000000 $d
     /tmp/cc5ZvWqu.s:1072   .text._Z22SSD1322_SPI_Write_CDDDhhhh:00000000 $t
     /tmp/cc5ZvWqu.s:1078   .text._Z22SSD1322_SPI_Write_CDDDhhhh:00000000 _Z22SSD1322_SPI_Write_CDDDhhhh
.ARM.exidx.text._Z22SSD1322_SPI_Write_CDDDhhhh:00000000 $d
     /tmp/cc5ZvWqu.s:1146   .text._Z23SSD1322_SPI_Write_CDDDDhhhhh:00000000 $t
     /tmp/cc5ZvWqu.s:1152   .text._Z23SSD1322_SPI_Write_CDDDDhhhhh:00000000 _Z23SSD1322_SPI_Write_CDDDDhhhhh
.ARM.exidx.text._Z23SSD1322_SPI_Write_CDDDDhhhhh:00000000 $d
     /tmp/cc5ZvWqu.s:1229   .text._Z10invertCharPm:00000000 $t
     /tmp/cc5ZvWqu.s:1235   .text._Z10invertCharPm:00000000 _Z10invertCharPm
ARM GAS  /tmp/cc5ZvWqu.s 			page 58


     /tmp/cc5ZvWqu.s:1304   .text._Z10invertCharPm:00000030 $d
     /tmp/cc5ZvWqu.s:1960   .bss.OLED_Data:00000000 OLED_Data
 .ARM.exidx.text._Z10invertCharPm:00000000 $d
     /tmp/cc5ZvWqu.s:1311   .text.startup.main:00000000 $t
     /tmp/cc5ZvWqu.s:1317   .text.startup.main:00000000 main
     /tmp/cc5ZvWqu.s:1776   .text.startup.main:000001c8 $d
     /tmp/cc5ZvWqu.s:1988   .bss.l1:00000000 l1
     /tmp/cc5ZvWqu.s:1981   .bss.l2:00000000 l2
     /tmp/cc5ZvWqu.s:1974   .bss.l3:00000000 l3
     /tmp/cc5ZvWqu.s:1967   .bss.l4:00000000 l4
     .ARM.exidx.text.startup.main:00000000 $d
     /tmp/cc5ZvWqu.s:1791   .text.startup._GLOBAL__sub_I_t:00000000 $t
     /tmp/cc5ZvWqu.s:1796   .text.startup._GLOBAL__sub_I_t:00000000 _GLOBAL__sub_I_t
     /tmp/cc5ZvWqu.s:1936   .text.startup._GLOBAL__sub_I_t:000000ac $d
     /tmp/cc5ZvWqu.s:2015   .data.t:00000000 t
     /tmp/cc5ZvWqu.s:2009   .bss.testData:00000000 testData
     /tmp/cc5ZvWqu.s:1994   .data.testData2:00000000 testData2
.ARM.exidx.text.startup._GLOBAL__sub_I_t:00000000 $d
     /tmp/cc5ZvWqu.s:1953   .init_array:00000000 $d
     /tmp/cc5ZvWqu.s:1957   .bss.OLED_Data:00000000 $d
     /tmp/cc5ZvWqu.s:1964   .bss.l4:00000000 $d
     /tmp/cc5ZvWqu.s:1971   .bss.l3:00000000 $d
     /tmp/cc5ZvWqu.s:1978   .bss.l2:00000000 $d
     /tmp/cc5ZvWqu.s:1985   .bss.l1:00000000 $d
     /tmp/cc5ZvWqu.s:2010   .bss.testData:00000000 $d
                           .group:00000000 _ZN5LabelD5Ev
                           .group:00000000 _ZN5LabelC5EPhhhhhh
                           .group:00000000 _ZN14SPI_ConnectionC5Ev

UNDEFINED SYMBOLS
memset
__aeabi_atexit
__dso_handle
